(lp0
Vraining
p1
aVyellow
p2
aVwoods
p3
aVhanging
p4
aVcyprus
p5
aVpayoff
p6
aVgrenier
p7
aVforza
p8
aVpardon
p9
aVpigged
p10
aVeligible
p11
aVelectricity
p12
aVpattaya
p13
aVlori
p14
aVdemoted
p15
aVlore
p16
aVlord
p17
aVfanncyin
p18
aVmeadows
p19
aVsparklyspud
p20
aVsinking
p21
aVcallin
p22
aVhacked
p23
aVdeli
p24
aVoceans
p25
aVdell
p26
aVjonaslive
p27
aVfoul
p28
aVfur
p29
aVbringing
p30
aVweell
p31
aVprize
p32
aVbroiler
p33
aVnottingham
p34
aVwooden
p35
aVwednesday
p36
aVhussie
p37
aVenrollment
p38
aVasian
p39
aVtired
p40
aVbacon
p41
aVlomonosovskiy
p42
aVrusty
p43
aVfeck
p44
aVblouse
p45
aVerrors
p46
aVruthless
p47
aVthunder
p48
aVcooking
p49
aVcontributed
p50
aVfingers
p51
aVdesigning
p52
aVdooin
p53
aVincreasing
p54
aVwidget
p55
aVhero
p56
aVreporter
p57
aVavery
p58
aVleaning
p59
aVjasmine
p60
aVreported
p61
aVchina
p62
aVpunks
p63
aVhers
p64
aVguildfordium
p65
aVkids
p66
aVclimbed
p67
aVreports
p68
aVeveryon
p69
aViloveyou
p70
aVyourebel
p71
aVkarin
p72
aVpullin
p73
aVcancellation
p74
aVgolden
p75
aVmeetups
p76
aVexplained
p77
aVreplace
p78
aVbrought
p79
aVhahahahah
p80
aVdearie
p81
aVtxt
p82
aVscarier
p83
aVcheating
p84
aVspoke
p85
aVhubbie
p86
aVdno
p87
aVdnt
p88
aVmusic
p89
aVpassport
p90
aVstrike
p91
aVcapital
p92
aVpaperwork
p93
aVstandardized
p94
aVholy
p95
aVrelax
p96
aVsuccessful
p97
aVhurr
p98
aVhols
p99
aVyahoo
p100
aVhurt
p101
aVmalesejow
p102
aVglass
p103
aVgoddammit
p104
aVprimeval
p105
aVhold
p106
aVexhorbitant
p107
aVhola
p108
aVcircumstances
p109
aVlistenin
p110
aVaccid
p111
aVintake
p112
aVlocked
p113
aVblade
p114
aVlocker
p115
aVeyemask
p116
aVyup
p117
aVshaving
p118
aVexample
p119
aVwana
p120
aVpints
p121
aVmuahaha
p122
aVorganized
p123
aVmichaeljackson
p124
aVpooper
p125
aVsmth
p126
aVreviewing
p127
aVrayon
p128
aVpinto
p129
aVdyke
p130
aVrescue
p131
aVhob
p132
aVunpaid
p133
aVhon
p134
aVhoo
p135
aVtravel
p136
aVdrying
p137
aVdamage
p138
aVmachine
p139
aVhot
p140
aVbfmv
p141
aVhop
p142
aVrevisig
p143
aVactivation
p144
aVgaming
p145
aVabstraction
p146
aVgrandad
p147
aVmufasa
p148
aVcuss
p149
aVwrong
p150
aVbarney
p151
aVgrownup
p152
aVtypes
p153
aVyouthy
p154
aVcalves
p155
aVwins
p156
aVhdtv
p157
aVaweber
p158
aVsickening
p159
aVcigarettes
p160
aVwind
p161
aVupdates
p162
aVsenators
p163
aVmabey
p164
aVfeedback
p165
aVuninstalling
p166
aVtelecom
p167
aVwelcomee
p168
aVfacial
p169
aVromania
p170
aVvarm
p171
aVrewarded
p172
aVrehersal
p173
aVshoval
p174
aVrealyz
p175
aVfit
p176
aVsurpise
p177
aVfix
p178
aVsurvivors
p179
aVfic
p180
aVmatured
p181
aVwales
p182
aVhidden
p183
aVeasier
p184
aVduvet
p185
aVsongwriter
p186
aVmtnl
p187
aVzac
p188
aVtwits
p189
aVoks
p190
aVvelcro
p191
aVschools
p192
aVjetlag
p193
aVblink
p194
aVsilver
p195
aVsaddened
p196
aVgrueling
p197
aVyasmina
p198
aVdebut
p199
aVbarton
p200
aVdumps
p201
aVsecondlife
p202
aVnoticable
p203
aVarrow
p204
aVdebug
p205
aVsonhos
p206
aVloyalties
p207
aVwindmill
p208
aVfinancial
p209
aVtwittermates
p210
aVmdm
p211
aVseries
p212
aVturnin
p213
aVallah
p214
aVspider
p215
aVssradio
p216
aVcontracting
p217
aVefron
p218
aVcathedral
p219
aVwhit
p220
aVring
p221
aVwhip
p222
aVdodds
p223
aVrt
p224
aVtrending
p225
aVrs
p226
aVha
p227
aVsms
p228
aVrcrs
p229
aVre
p230
aVdsl
p231
aVra
p232
aVrb
p233
aVsmh
p234
aVkristensen
p235
aVsme
p236
aVmillions
p237
aVsmithfield
p238
aVirrationally
p239
aVthreatened
p240
aVkayla
p241
aVian
p242
aVsheet
p243
aVknit
p244
aVmetallica
p245
aVaccts
p246
aVenormous
p247
aVate
p248
aVbirdie
p249
aVds6
p250
aVatl
p251
aVatm
p252
aVscruff
p253
aVbwrw
p254
aVatt
p255
aVlevels
p256
aVspeedy
p257
aVdivorcing
p258
aVresetting
p259
aVsteroids
p260
aVwass
p261
aVnosebleeds
p262
aVwash
p263
aVspinning
p264
aVkfc
p265
aVinfused
p266
aVevreyones
p267
aVplastic
p268
aVseizures
p269
aVolds
p270
aVbasketball
p271
aVservice
p272
aVlego
p273
aVengagement
p274
aVtango
p275
aVmaster
p276
aVlisted
p277
aVblossoms
p278
aVmilligan
p279
aVarchitect
p280
aVlegs
p281
aVbitter
p282
aVgenesis
p283
aVlisten
p284
aVlacrosse
p285
aVgeneva
p286
aVhows
p287
aVwisdom
p288
aVpredictable
p289
aVcrawl
p290
aVhorrible
p291
aVtwitteriffic
p292
aVtrem
p293
aVwelcum
p294
aVtree
p295
aVshowem
p296
aVshower
p297
aVhowz
p298
aVendure
p299
aVfanmixes
p300
aVurggh
p301
aVfeeling
p302
aVyeezys
p303
aVkeyshia
p304
aVrunner
p305
aVboston
p306
aVshyly
p307
aVtommrow
p308
aVpicks
p309
aVlongg
p310
aVsourdough
p311
aVkayo
p312
aVugghh
p313
aVflippin
p314
aVsoaked
p315
aVmetallic
p316
aVokie
p317
aVrecommended
p318
aVdoors
p319
aVtlaga
p320
aVdoin
p321
aVobject
p322
aVlooming
p323
aVvictoria
p324
aVmouth
p325
aVaddict
p326
aVletter
p327
aVentry
p328
aVdrought
p329
aVmacbook
p330
aVdummy
p331
aVsinger
p332
aVjbl
p333
aVepisode
p334
aVreleased
p335
aVemailing
p336
aVprofessor
p337
aVcamp
p338
aVcoome
p339
aVcami
p340
aVthaat
p341
aVtech
p342
aVscream
p343
aVguyss
p344
aVprii
p345
aVsaying
p346
aVsquarespace
p347
aVbomb
p348
aVbraising
p349
aVmeetings
p350
aVbonnie
p351
aVnominated
p352
aVpadded
p353
aVprix
p354
aVfennel
p355
aVparticipate
p356
aVlethal
p357
aVtempted
p358
aVchnage
p359
aVlessons
p360
aVbusy
p361
aVclicked
p362
aVlazing
p363
aVcousins
p364
aVbust
p365
aVappreciated
p366
aVtwitterr
p367
aVrico
p368
aVlube
p369
aVtouched
p370
aVkaddys
p371
aVthemm
p372
aVrice
p373
aVplate
p374
aViamasimplecaveman
p375
aVhonda
p376
aVtraumatising
p377
aVpocket
p378
aVcushion
p379
aVbruvver
p380
aVmidterms
p381
aVnet
p382
aVunfortunately
p383
aVvicariously
p384
aVgamenight
p385
aVspilling
p386
aVnicely
p387
aVtights
p388
aVnes
p389
aVeyelids
p390
aVrelease
p391
aVboarded
p392
aVairtubes
p393
aVrespond
p394
aVmee
p395
aVblew
p396
aVmandatory
p397
aVdisaster
p398
aVfair
p399
aVheirloom
p400
aVinadvertantly
p401
aVinsinuation
p402
aVgoodnight
p403
aVresult
p404
aVclem
p405
aVfail
p406
aVofften
p407
aVskulls
p408
aVbleh
p409
aVmanson
p410
aVlots
p411
aVrings
p412
aVscore
p413
aVirl
p414
aVmelissa
p415
aVirn
p416
aVfbook
p417
aVirb
p418
aVcubby
p419
aVpirate
p420
aVwtr
p421
aVnature
p422
aVrolled
p423
aVtoilette
p424
aVnanna
p425
aVwtf
p426
aVwtg
p427
aVibbotson
p428
aVroller
p429
aVpity
p430
aVaccident
p431
aVmvc2
p432
aVbachelorette
p433
aVcountry
p434
aVtings
p435
aVhave2live
p436
aVheating
p437
aVdemanded
p438
aVplanned
p439
aVlookin
p440
aVlogic
p441
aVpita
p442
aVsoory
p443
aVgoldsboro
p444
aVwearying
p445
aVmintues
p446
aVdorm
p447
aVherr
p448
aVdiff
p449
aVhumming
p450
aVsummat
p451
aVbuttload
p452
aVbilling
p453
aVchrome
p454
aVfri
p455
aVfro
p456
aVsynchronicity
p457
aVfrm
p458
aVadvert
p459
aVsavin
p460
aVcud
p461
aVhaylie
p462
aVfecking
p463
aVparents
p464
aVcanetoads
p465
aVann
p466
aVdots
p467
aVlife
p468
aVretrospect
p469
aVspit
p470
aVwritting
p471
aVdave
p472
aVlift
p473
aVchile
p474
aVchild
p475
aVqusay
p476
aVspin
p477
aVaiek
p478
aVchill
p479
aVhanginaround
p480
aVpresidency
p481
aVorganisers
p482
aVsem2
p483
aVdellechiaie
p484
aVmarriag
p485
aVtanning
p486
aVesse
p487
aVremembering
p488
aVnarcissism
p489
aVtzu
p490
aVplayed
p491
aVtedxtokyo
p492
aVprr
p493
aVtoolkit
p494
aVweirdness
p495
aVletdown
p496
aVplayer
p497
aVkeegan
p498
aVviolin
p499
aVudah
p500
aVtrusted
p501
aVthingz
p502
aVhong
p503
aVthingy
p504
aVharmone
p505
aVdhc
p506
aVsplit
p507
aVbabies
p508
aVprovincials
p509
aVelliott
p510
aVtoasted
p511
aVexertion
p512
aVboiled
p513
aVsugarsync
p514
aVkoreatown
p515
aVtops
p516
aVjks
p517
aVphotographers
p518
aVtuna
p519
aVhaggard
p520
aVcocoa
p521
aVwebstore
p522
aVburgers
p523
aVquest
p524
aVrelay
p525
aVnachos
p526
aVcorporate
p527
aVsleept
p528
aVletterman
p529
aVpoouukeepsie
p530
aVdietetics
p531
aVsleepy
p532
aVgreys
p533
aVnikonian
p534
aVdelain
p535
aVmuncul
p536
aVprevious
p537
aVhai
p538
aVorgies
p539
aVdialogues
p540
aVham
p541
aVhaa
p542
aVbrendita
p543
aVbis
p544
aVhay
p545
aVprojects
p546
aVeasy
p547
aVeast
p548
aVhat
p549
aVhav
p550
aVsurvival
p551
aVsiesta
p552
aVcalypso
p553
aVpossibly
p554
aVbirth
p555
aVbluecat
p556
aVshadow
p557
aVunique
p558
aVmassively
p559
aVpsychological
p560
aVrelooking
p561
aVbobby
p562
aVsteph
p563
aVremind
p564
aVsteps
p565
aVfollows
p566
aVsebastian
p567
aVmicroblogging
p568
aVvats
p569
aVbattlefield
p570
aVole
p571
aVcrowd
p572
aVpeople
p573
aVweds
p574
aVcreed
p575
aVytmitimliwickahyedtryhsyatm
p576
aVcrown
p577
aVtopping
p578
aVcreep
p579
aVcocaine
p580
aVbottom
p581
aVsotn
p582
aVfox
p583
aVcreative
p584
aVfod
p585
aVmuito
p586
aVindividuals
p587
aVumc
p588
aVtreadmill
p589
aVumm
p590
aVfon
p591
aVumh
p592
aVpinched
p593
aVdental
p594
aVtrampoline
p595
aValexandra
p596
aVlosing
p597
aVbamboo
p598
aVstokes
p599
aVfilipino
p600
aVvisitors
p601
aVdollars
p602
aVuu
p603
aVjoomla
p604
aVstoked
p605
aVflathunting
p606
aVlacked
p607
aVobservation
p608
aVslightly
p609
aVraised
p610
aVstatements
p611
aVhoneymoon
p612
aVsom
p613
aVmba
p614
aVsoo
p615
aVson
p616
aVthankful
p617
aVsor
p618
aVsou
p619
aVkisse
p620
aVsoy
p621
aVmbv
p622
aVsoz
p623
aVmbp
p624
aVwaitt
p625
aVmotherbitch
p626
aVfabric
p627
aVleaks
p628
aVsupport
p629
aVconstantly
p630
aVknowing
p631
aVnova
p632
aVjoseph
p633
aVwordpress
p634
aVspring
p635
aVresulted
p636
aVtweeps
p637
aVwaitn
p638
aVlaunching
p639
aVhappy
p640
aVunderestimated
p641
aVdns
p642
aVoffer
p643
aVsake
p644
aVoctodrive
p645
aVbuzz140
p646
aVrobertson
p647
aVmelanin
p648
aVcongratulations
p649
aVgenealogy
p650
aVinside
p651
aVpaprika
p652
aVcomplications
p653
aVorajel
p654
aVsmashed
p655
aVpalm
p656
aVtonne
p657
aVadopt
p658
aVminaj
p659
aVkarting
p660
aVtournament
p661
aVindy
p662
aVaffiliconil09
p663
aVsoothe
p664
aVroseville
p665
aVexist
p666
aVsprouts
p667
aVovest
p668
aVcassie
p669
aVposting
p670
aValtone
p671
aVfloor
p672
aVsheesh
p673
aVcerritos
p674
aVactor
p675
aVflood
p676
aVleed
p677
aVrole
p678
aVbrings
p679
aVbecuase
p680
aVsuperfluous
p681
aVroll
p682
aVhucks
p683
aVintend
p684
aVpalms
p685
aVgeezer
p686
aVcenter
p687
aVmoyles
p688
aVreruns
p689
aVmiranda
p690
aVrolling
p691
aVtransporter
p692
aVdingle
p693
aVhawker
p694
aVloren
p695
aVnxt
p696
aVspades
p697
aVzenjar
p698
aVnxe
p699
aVmummy
p700
aVquali
p701
aVtime
p702
aVpush
p703
aVsniffer
p704
aVluvchat
p705
aVaslo
p706
aVbfast
p707
aVchain
p708
aVwhoever
p709
aVhangovers
p710
aVhangoverr
p711
aVoss
p712
aVcudnt
p713
aVavalanche
p714
aVshimmy
p715
aVtrashcan
p716
aVchair
p717
aVhole
p718
aVvet
p719
aVgrapples
p720
aVrakers
p721
aVfreelance
p722
aVvey
p723
aVliveview
p724
aVfollowig
p725
aVfollowin
p726
aVjaywalking
p727
aVoversight
p728
aVyerr
p729
aVjokingly
p730
aVdownloading
p731
aVicing
p732
aVprepaid
p733
aVcheap
p734
aVdoki
p735
aVchoice
p736
aVgloomy
p737
aVmourn
p738
aVghostbusters
p739
aVnor
p740
aVminute
p741
aVdrivative
p742
aVtear
p743
aVollie
p744
aVleave
p745
aVsubway
p746
aVhittin
p747
aVteam
p748
aVloads
p749
aVleavn
p750
aVmeador
p751
aVprevent
p752
aVwadding
p753
aVrents
p754
aVsigh
p755
aVprediction
p756
aVsign
p757
aVwaitaminute
p758
aVbuut
p759
aVshirts
p760
aVeducate
p761
aVtartare
p762
aVfiretruck
p763
aVcurrent
p764
aVgrummpy
p765
aVfreaks
p766
aVmelb
p767
aVfalling
p768
aVground
p769
aVbadge
p770
aVaghh
p771
aVcreepiest
p772
aVkunis
p773
aVjury
p774
aVgrandparents
p775
aVfuneral
p776
aVunderstanding
p777
aVgladys
p778
aVcontemplate
p779
aVsnack
p780
aVaddress
p781
aVunrestrained
p782
aVpassengers
p783
aVhotlanta
p784
aVbrilliant
p785
aVstudied
p786
aVqueue
p787
aVg2g
p788
aVaccomplished
p789
aVoeh
p790
aVstudies
p791
aVphotie
p792
aVcarpets
p793
aVengineer
p794
aVtasks
p795
aVlove
p796
aVbr
p797
aVsaints
p798
aVprefer
p799
aVbloody
p800
aVmarvelous
p801
aVipt
p802
aVfake
p803
aVcttu
p804
aVsky
p805
aVsoundersfc
p806
aVsunbathing
p807
aVhomesick
p808
aVperished
p809
aVpositive
p810
aVangry
p811
aVpooped
p812
aVcharlies
p813
aVbz
p814
aVwondering
p815
aVfilms
p816
aVloving
p817
aVscratched
p818
aVafford
p819
aVwann
p820
aVoregon
p821
aVignorant
p822
aVembarassingness
p823
aVeasiest
p824
aVcashley
p825
aVfreyja
p826
aVpostgame
p827
aVinvolve
p828
aVcurrency
p829
aVoriginally
p830
aVoverloaded
p831
aVgvie
p832
aVcommies
p833
aVslowness
p834
aVbranston
p835
aVfollowing
p836
aVstupidities
p837
aVlogon
p838
aVbellucis
p839
aVpromenade
p840
aVflavor
p841
aVawesome
p842
aVnascar
p843
aVlocks
p844
aVallowed
p845
aVoffense
p846
aVsetlist
p847
aVstole
p848
aVfinna
p849
aVmonitoring
p850
aVwinter
p851
aVhelden
p852
aVbuttered
p853
aVpoking
p854
aVgrosses
p855
aVjoepa
p856
aVhappeend
p857
aVvancouver
p858
aVireney
p859
aVabsolute
p860
aVedinburgh
p861
aVsnaps
p862
aVlaundry
p863
aVexplorer
p864
aVblogtv
p865
aVslush
p866
aVspot
p867
aVlatte
p868
aVapplications
p869
aVmustve
p870
aVdate
p871
aVjamalamas
p872
aVsuck
p873
aVdata
p874
aVstress
p875
aVtlkin
p876
aVnatural
p877
aVconscious
p878
aVss
p879
aVdillo
p880
aVsp
p881
aVsw
p882
aVst
p883
aVcomplaining
p884
aVevery1s
p885
aVmango
p886
aVtruck
p887
aVsm
p888
aVswollen
p889
aVsnowed
p890
aVsa
p891
aVdreamland
p892
aVpulled
p893
aVsf
p894
aVse
p895
aVsd
p896
aVyearz
p897
aVunacceptable
p898
aVfeature
p899
aVcourse
p900
aVepisodes
p901
aVungentlemanly
p902
aVkanye
p903
aVlovelies
p904
aVdjs
p905
aVbagels
p906
aVtorn
p907
aVtwitching
p908
aVfaves
p909
aVgatorade
p910
aVconstitutes
p911
aVhometown
p912
aVpetition
p913
aVinstantly
p914
aVclosure
p915
aVreligilous
p916
aVmatches
p917
aVsmarter
p918
aVbrainwave
p919
aVfeelin
p920
aVbuckcherry
p921
aVdrilling
p922
aVtodaay
p923
aVarriving
p924
aVsorted
p925
aVtwilight
p926
aVfreya
p927
aVbrody
p928
aVrevert
p929
aVfs
p930
aVbowling
p931
aVquarter
p932
aVrepaired
p933
aVturtle
p934
aVcuticles
p935
aVexecter
p936
aVhonduras
p937
aVgrowths
p938
aVsponsor
p939
aVentering
p940
aVbeetle
p941
aVozzies
p942
aVtroll
p943
aVcanvas
p944
aVworkaholic
p945
aVbarometric
p946
aVbeauty
p947
aVsunburnt
p948
aVsquared
p949
aVseriously
p950
aVexploding
p951
aVcoba
p952
aVinternet
p953
aVformula
p954
aVmalibuu
p955
aVsarko
p956
aVsheffield
p957
aVmillion
p958
aVseventh
p959
aVbumps
p960
aVcomplicated
p961
aVcrazier
p962
aVbesides
p963
aVrattie
p964
aVbumpy
p965
aVquits
p966
aVinhaler
p967
aVnoossee
p968
aVprefered
p969
aVtraining
p970
aVwekend
p971
aVbrasil
p972
aVdunno
p973
aVcollapsing
p974
aVtasting
p975
aVprogramming
p976
aVryan
p977
aVmassive
p978
aVwashingtonn
p979
aVpuny
p980
aVsaving
p981
aVspoken
p982
aVflght
p983
aVpotter
p984
aVmucho
p985
aVinschool
p986
aVtissues
p987
aVspanish
p988
aVcroup
p989
aVsayonara
p990
aVdanan
p991
aVcity
p992
aVboulevard
p993
aVwrath
p994
aVbite
p995
aVinteressted
p996
aVpleease
p997
aVinsalata
p998
aVafterschool
p999
aVfml
p1000
aVtwenties
p1001
aVdraft
p1002
aVstuffed
p1003
aVrealization
p1004
aVaddicting
p1005
aVbits
p1006
aVwilliams
p1007
aVcutty
p1008
aValphen
p1009
aVsataniswearingajacket
p1010
aVshawn
p1011
aVpadding
p1012
aVridiculous
p1013
aVweemee
p1014
aVboyfriend
p1015
aVtranslate
p1016
aVabuelo
p1017
aVdepressed
p1018
aVfavors
p1019
aVgg
p1020
aVrehab
p1021
aVfuture
p1022
aVtyhe
p1023
aVdiisapoiinted
p1024
aVwandering
p1025
aVproactive
p1026
aVprospect
p1027
aVtasted
p1028
aVwhut
p1029
aVsal
p1030
aVsab
p1031
aVafternoons
p1032
aValley
p1033
aVsad
p1034
aVapologies
p1035
aVtastes
p1036
aVrained
p1037
aVsas
p1038
aVallen
p1039
aVdismissive
p1040
aVsat
p1041
aVhasseekk
p1042
aVzoe
p1043
aVbabysit
p1044
aVunsuitable
p1045
aVaside
p1046
aVzoo
p1047
aVnote
p1048
aVomfg
p1049
aVzot
p1050
aVroadside
p1051
aVdestroy
p1052
aVericson
p1053
aVbutterfly
p1054
aVopposite
p1055
aVcaraleo
p1056
aVeldest
p1057
aVfails
p1058
aVbuffet
p1059
aVblowers
p1060
aVfreshmen
p1061
aVprinted
p1062
aVmarysville
p1063
aVknee
p1064
aVpages
p1065
aVeverlast
p1066
aVlawn
p1067
aVkradam
p1068
aVaverage
p1069
aValienware
p1070
aVdrive
p1071
aVbade
p1072
aVatlantic
p1073
aVwine
p1074
aVcobra
p1075
aVdefinite
p1076
aVgrilling
p1077
aVmerit
p1078
aVhcsm
p1079
aVpeaches
p1080
aVbright
p1081
aVsylt
p1082
aVcommissary
p1083
aVscarce
p1084
aVimagined
p1085
aVslot
p1086
aVfanny
p1087
aVslow
p1088
aVbuffday
p1089
aVrecomended
p1090
aVdeck
p1091
aVrobs
p1092
aVtears
p1093
aVhockey
p1094
aVouchh
p1095
aVteary
p1096
aVfridaynitemix
p1097
aVdounuts
p1098
aVpinkberry
p1099
aVgoodluck
p1100
aVmissdusa
p1101
aVnooks
p1102
aVfreezing
p1103
aVwheelie
p1104
aVherbal
p1105
aVmonde
p1106
aVslammers
p1107
aVboardmasters
p1108
aVawaiting
p1109
aVpimp
p1110
aVsettings
p1111
aVworried
p1112
aVfaad
p1113
aVmidfield
p1114
aVroger
p1115
aVbombs
p1116
aVworries
p1117
aVtortilla
p1118
aVahhin
p1119
aVvision
p1120
aVsirens
p1121
aVwud
p1122
aVgottfried
p1123
aVanyways
p1124
aVdivex
p1125
aVsurgery
p1126
aVcil
p1127
aVrefreshes
p1128
aVplanet
p1129
aVdexter
p1130
aVmutton
p1131
aVbrave
p1132
aVjumped
p1133
aVsites
p1134
aVpoopy
p1135
aVwebkinz
p1136
aVsitel
p1137
aVmcmanus
p1138
aVbyee
p1139
aVteens
p1140
aVjumper
p1141
aVjobs
p1142
aVmarvin
p1143
aVscreen
p1144
aVsupermarket
p1145
aVgratefully
p1146
aVconcentrate
p1147
aVspare
p1148
aVmomiji
p1149
aVjets
p1150
aVmans
p1151
aVmanu
p1152
aVbwahaha
p1153
aVverity
p1154
aVmanc
p1155
aVmann
p1156
aVyearly
p1157
aVtwix
p1158
aVstream
p1159
aVtwit
p1160
aVcokee
p1161
aVconected
p1162
aVtwin
p1163
aVanti
p1164
aVcomeback
p1165
aVante
p1166
aVboat
p1167
aVmath
p1168
aVcaring
p1169
aVteddy
p1170
aVstretch
p1171
aVwest
p1172
aVmillard
p1173
aVlocally
p1174
aVvacation
p1175
aVbreath
p1176
aVcombined
p1177
aVstripped
p1178
aVprototype
p1179
aVlanes
p1180
aVphotog
p1181
aVboardie
p1182
aVcoughing
p1183
aVphotos
p1184
aVhashtag
p1185
aVbonjour
p1186
aVformer
p1187
aVclampers
p1188
aVrunnin
p1189
aVglobally
p1190
aVtarikk
p1191
aVstructures
p1192
aVstraighten
p1193
aVsituation
p1194
aVive
p1195
aVpremiere
p1196
aVinternets
p1197
aVcanon
p1198
aVmixtape
p1199
aVbros
p1200
aVpinky
p1201
aVblah
p1202
aVbroo
p1203
aVlimping
p1204
aVimitrex
p1205
aVtechnology
p1206
aVfame
p1207
aVthesame
p1208
aVshutt
p1209
aVrooting
p1210
aVokeey
p1211
aVthinkin
p1212
aVcagcast
p1213
aVyessir
p1214
aVworkout
p1215
aVcramming
p1216
aVwrappers
p1217
aVmanagements
p1218
aVedged
p1219
aVsickness
p1220
aVcheers
p1221
aVcodes
p1222
aVdefo
p1223
aVbooster
p1224
aVcosta
p1225
aVtracking
p1226
aVcoursework
p1227
aVnothin
p1228
aVcosts
p1229
aVsunnyvale
p1230
aVtrains
p1231
aVgrumpy
p1232
aVhubby
p1233
aVrainingg
p1234
aVscholarship
p1235
aVsummer
p1236
aVsorryy
p1237
aVplurkers
p1238
aVrest
p1239
aVinterrupt
p1240
aVbraised
p1241
aVmacintyre
p1242
aVbzns
p1243
aVmache
p1244
aVdarien
p1245
aVweekly
p1246
aVgrounded
p1247
aVdicks
p1248
aVskies
p1249
aVstarving
p1250
aVblendtec
p1251
aVzion
p1252
aVpriuses
p1253
aVhve
p1254
aVpentz
p1255
aVsodding
p1256
aVdark
p1257
aVtraffic
p1258
aVdarn
p1259
aVvacuum
p1260
aVworld
p1261
aVintel
p1262
aVstranger
p1263
aVgimme
p1264
aVrachael
p1265
aVkennel
p1266
aVclap
p1267
aVbrushing
p1268
aVscamming
p1269
aVpushy
p1270
aVplayin
p1271
aVpod
p1272
aVboxers
p1273
aVobviousness
p1274
aVwristband
p1275
aVcavity
p1276
aVmemories
p1277
aVtube
p1278
aVtobago
p1279
aVcassidys
p1280
aVcomputing
p1281
aVlenk
p1282
aVsucha
p1283
aVexit
p1284
aVsuchh
p1285
aVrestoring
p1286
aVheadhunter
p1287
aVtransformers
p1288
aVtimeout
p1289
aVpower
p1290
aVinternship
p1291
aVleno
p1292
aVaddicted
p1293
aVleadership
p1294
aVpoplicious
p1295
aVstandpoint
p1296
aVthailand
p1297
aVstitchs
p1298
aVacc
p1299
aVstone
p1300
aVpayton
p1301
aVsubscribed
p1302
aVorigins
p1303
aVpackage
p1304
aVindustry
p1305
aVfavorite
p1306
aVwikid
p1307
aVunseasonably
p1308
aVnetbook
p1309
aVneighbor
p1310
aVact
p1311
aVmean
p1312
aVpartied
p1313
aVfundraising
p1314
aVburning
p1315
aVimage
p1316
aVballparkfood
p1317
aVjasper
p1318
aVhomeless
p1319
aVapologize
p1320
aVallisons
p1321
aVdawned
p1322
aVbubbly
p1323
aVmissi
p1324
aVhes
p1325
aVhey
p1326
aVhez
p1327
aVsebi
p1328
aVskint
p1329
aVmissy
p1330
aVbrazilian
p1331
aVhem
p1332
aVheh
p1333
aVago
p1334
aVdormir
p1335
aVcomplete
p1336
aVhells
p1337
aVyayy
p1338
aVwoked
p1339
aVpeaceful
p1340
aVwity
p1341
aVrainin
p1342
aVsurvived
p1343
aVpusingg
p1344
aVbuying
p1345
aVhandsome
p1346
aVpull
p1347
aVrush
p1348
aVoctober
p1349
aVytweetstalks
p1350
aVmonopoly
p1351
aVhooray
p1352
aVreasoned
p1353
aVjamaican
p1354
aVdirty
p1355
aVwiith
p1356
aVbootiful
p1357
aVnomnomnomnom
p1358
aVtrips
p1359
aVrust
p1360
aVmisery
p1361
aVaa
p1362
aVgone
p1363
aVac
p1364
aVohh
p1365
aVgona
p1366
aVjohnny
p1367
aVexhausted
p1368
aVah
p1369
aVak
p1370
aVstealing
p1371
aVam
p1372
aVal
p1373
aVap
p1374
aVtshirt
p1375
aVau
p1376
aVaw
p1377
aVav
p1378
aVay
p1379
aVwatched
p1380
aVaz
p1381
aVattatched
p1382
aVcream
p1383
aVyogg
p1384
aVyoga
p1385
aVswimmng
p1386
aVgraduate
p1387
aVtight
p1388
aVsummit
p1389
aVsomeones
p1390
aVfriggin
p1391
aVpuppy
p1392
aVp91oi
p1393
aVopenid
p1394
aVshaun
p1395
aVbombed
p1396
aVkunyuk
p1397
aVterry
p1398
aVtricky
p1399
aVcpi
p1400
aVmimis
p1401
aVnatalie
p1402
aVtricks
p1403
aVgroom
p1404
aVmask
p1405
aVdrayton
p1406
aVkickin
p1407
aVmass
p1408
aVadam
p1409
aVadan
p1410
aVblippers
p1411
aVoriginal
p1412
aVjaja
p1413
aVconsider
p1414
aVcaused
p1415
aVbeware
p1416
aVtours
p1417
aVminors
p1418
aVthatjonaskidjoe
p1419
aVrecaps
p1420
aVandrea
p1421
aVhunting
p1422
aVty
p1423
aVtv
p1424
aVtu
p1425
aVbrokenn
p1426
aVencourage
p1427
aVtp
p1428
aVchampions
p1429
aVtn
p1430
aVtail
p1431
aVtj
p1432
aVtk
p1433
aVth
p1434
aVdressing
p1435
aVsmile
p1436
aVrescuedevice
p1437
aVte
p1438
aVtc
p1439
aVta
p1440
aVappointment
p1441
aVreturned
p1442
aVcheckin
p1443
aVrc
p1444
aVppls
p1445
aVdiary
p1446
aVlabor
p1447
aVpplz
p1448
aVcondition
p1449
aVcable
p1450
aVaccompanying
p1451
aVshenanigans
p1452
aVawsome
p1453
aVlaying
p1454
aVjoined
p1455
aVsang
p1456
aVsand
p1457
aVsane
p1458
aVharry
p1459
aVkitesurf
p1460
aVkovasisthefuture
p1461
aVsumwhere
p1462
aVmaggie
p1463
aVhumongous
p1464
aVquicker
p1465
aVbcus
p1466
aVpenalties
p1467
aVpaso
p1468
aVsync
p1469
aVhealed
p1470
aVpast
p1471
aVpass
p1472
aVhealer
p1473
aVrichard
p1474
aVclock
p1475
aVsection
p1476
aVcrowley
p1477
aVburgundy
p1478
aVfuckn
p1479
aVundecided
p1480
aVnurse
p1481
aVnightynite
p1482
aVsavvy
p1483
aVgandu
p1484
aVknid
p1485
aVdiapers
p1486
aVhours
p1487
aVl4d
p1488
aVhast
p1489
aVbrookelynn
p1490
aVnovember
p1491
aVlegend
p1492
aVlustig
p1493
aVsookyeong
p1494
aVtday
p1495
aVtomoro
p1496
aVintroductory
p1497
aVrazr
p1498
aVexperience
p1499
aVpics
p1500
aVmouldy
p1501
aVprior
p1502
aVemulator
p1503
aVsocial
p1504
aVaction
p1505
aVweirder
p1506
aVpicc
p1507
aVvic
p1508
aVvia
p1509
aVfollowed
p1510
aVrusko
p1511
aVvid
p1512
aVmusics
p1513
aVescuchas
p1514
aVvil
p1515
aVtraumatized
p1516
aVfollower
p1517
aVindoors
p1518
aVgosh
p1519
aVpenrhos
p1520
aVigcse
p1521
aVmorn
p1522
aVgorgeous
p1523
aVmora
p1524
aVteen
p1525
aVdoor
p1526
aVteef
p1527
aVcompany
p1528
aVspoilt
p1529
aVtested
p1530
aVchuckk
p1531
aVdooh
p1532
aVasot400
p1533
aVkeeping
p1534
aVsocials
p1535
aVscience
p1536
aVfarted
p1537
aVinstalling
p1538
aVmall
p1539
aVwatchn
p1540
aVresources
p1541
aVmorgan
p1542
aVlearn
p1543
aVknocked
p1544
aVmale
p1545
aVbeautiful
p1546
aVuploaded
p1547
aVrodriguez
p1548
aVsuggestions
p1549
aVasplode
p1550
aVaccept
p1551
aVmacross
p1552
aVfiercely
p1553
aVsalty
p1554
aVelbowed
p1555
aVsense
p1556
aVstation
p1557
aVdress
p1558
aVhuge
p1559
aVhugg
p1560
aVtulsa
p1561
aVimminent
p1562
aVhugh
p1563
aVencounting
p1564
aVscifi
p1565
aVfreshly
p1566
aVhugs
p1567
aVatr
p1568
aVcreature
p1569
aVplant
p1570
aVplans
p1571
aVcountryside
p1572
aVwiley
p1573
aVsympathize
p1574
aVsoundtrack
p1575
aVplane
p1576
aVunfun
p1577
aVwaves
p1578
aVbackyard
p1579
aVauthentic
p1580
aVwavey
p1581
aVngobrool
p1582
aVsnotty
p1583
aVrefuse
p1584
aVrowdy
p1585
aVvolleyball
p1586
aVbroadcasting
p1587
aVlftf
p1588
aVsosickofhockeytoo
p1589
aVfender
p1590
aVreplied
p1591
aVncis
p1592
aVstarhub
p1593
aVmexican
p1594
aVduznt
p1595
aVreminded
p1596
aVitd
p1597
aVbestfr
p1598
aVbyk
p1599
aVinstalled
p1600
aVpaper
p1601
aVscott
p1602
aVreplies
p1603
aVbroadway
p1604
aVitt
p1605
aVsurgeon
p1606
aVbrie
p1607
aVbummed
p1608
aVrapidly
p1609
aVfiguring
p1610
aVallo
p1611
aVgerald
p1612
aVwrk
p1613
aVsymptoms
p1614
aVruining
p1615
aVbummer
p1616
aVisaac
p1617
aVsauce
p1618
aVlacey
p1619
aVbackache
p1620
aVlowell
p1621
aVradio2
p1622
aVgadget
p1623
aVfior
p1624
aVfrizzy
p1625
aVweeds
p1626
aVwhheerree
p1627
aVsubtitles
p1628
aVsucked
p1629
aValwayz
p1630
aVdocument
p1631
aVeverytime
p1632
aVnauseous
p1633
aVsnuggled
p1634
aVcourses
p1635
aVtweetheart
p1636
aVuploads
p1637
aVchainreaction
p1638
aVfound
p1639
aVshocking
p1640
aVstatus
p1641
aVshock
p1642
aVengland
p1643
aVupstairs
p1644
aVmums
p1645
aVfavorited
p1646
aVgfs
p1647
aVreduce
p1648
aVhomegirls
p1649
aVnossa
p1650
aVtonite
p1651
aVmillers
p1652
aVoperation
p1653
aVpsychology
p1654
aVftw
p1655
aVruptured
p1656
aVspca
p1657
aVresearch
p1658
aVsi
p1659
aVmisses
p1660
aVcleaningg
p1661
aVdarling
p1662
aVplotting
p1663
aVfoam
p1664
aVdrifting
p1665
aVhungweys
p1666
aVsmcsea
p1667
aVdrives
p1668
aVshoping
p1669
aVconditioning
p1670
aVimagine
p1671
aVmancy
p1672
aVamped
p1673
aVimru
p1674
aVpairs
p1675
aVacquaint
p1676
aVsytycd
p1677
aVpersons
p1678
aVsicker
p1679
aVpraise
p1680
aVbelleville
p1681
aVpalgrave
p1682
aVbumper
p1683
aVdimes
p1684
aVmajor
p1685
aVslipped
p1686
aVjujitsu
p1687
aVchch
p1688
aVbrutally
p1689
aVfeeder
p1690
aVceleb
p1691
aVnumbed
p1692
aVglitter
p1693
aVguess
p1694
aVhott
p1695
aVheads
p1696
aVguest
p1697
aVjet
p1698
aVderees
p1699
aVspock
p1700
aVjef
p1701
aVaa3
p1702
aVmeishi
p1703
aVessays
p1704
aVjem
p1705
aVsympathies
p1706
aVtenderfoot
p1707
aVrelationship
p1708
aVhelpful
p1709
aVorkut
p1710
aVstairs
p1711
aVgrace
p1712
aVobama
p1713
aVvocab
p1714
aVtortellini
p1715
aVhiya
p1716
aVrappin
p1717
aViranian
p1718
aVcondolences
p1719
aVmcfly
p1720
aVkreme
p1721
aVaah
p1722
aVwillhave
p1723
aVcollaboration
p1724
aVtummy
p1725
aVaaw
p1726
aVdetermined
p1727
aVmarriage
p1728
aVhyde
p1729
aVerosn
p1730
aVhewitt
p1731
aVremembers
p1732
aVbasically
p1733
aVdanish
p1734
aVmagical
p1735
aVblond
p1736
aVnonono
p1737
aVsell
p1738
aVpajamas
p1739
aVself
p1740
aVvideohits
p1741
aVsomtimes
p1742
aVhge
p1743
aVvillager
p1744
aVplay
p1745
aVbrendon
p1746
aVsingles
p1747
aVyawn
p1748
aVvirus
p1749
aVplan
p1750
aVaccepting
p1751
aVunderstands
p1752
aVomaha
p1753
aVgaby
p1754
aVsometimes
p1755
aVcover
p1756
aVmacbookpro
p1757
aVh2o
p1758
aVartistic
p1759
aVexp
p1760
aVanthem
p1761
aVbarrel
p1762
aVmicrosoft
p1763
aVmoodswings
p1764
aVugh
p1765
aVgolf
p1766
aVgold
p1767
aVuga
p1768
aVsession
p1769
aVgurl
p1770
aVoverwhelmed
p1771
aVwraps
p1772
aVwriter
p1773
aVfailed
p1774
aVl0l
p1775
aVcassette
p1776
aVadventureland
p1777
aVfactor
p1778
aVgiants
p1779
aVbegins
p1780
aVrowies
p1781
aVbanned
p1782
aVsunny
p1783
aVtrek
p1784
aVpreparing
p1785
aVclosely
p1786
aVdamnit
p1787
aVfrightening
p1788
aVipost
p1789
aVimflamation
p1790
aVbaybehh
p1791
aVpaddling
p1792
aVcry
p1793
aVvoorderman
p1794
aVcaramel
p1795
aVobscure
p1796
aVriver
p1797
aVapproaching
p1798
aVinsane
p1799
aVset
p1800
aVcreator
p1801
aVappalachian
p1802
aVjade
p1803
aVsez
p1804
aVsex
p1805
aVps2
p1806
aVsed
p1807
aVsec
p1808
aVsea
p1809
aVoverboard
p1810
aVsel
p1811
aVproject
p1812
aVchuckmemondays
p1813
aVfricking
p1814
aVmovie
p1815
aVcurrently
p1816
aVdemons
p1817
aVrespectively
p1818
aVsoulmate
p1819
aVhalfway
p1820
aVnope
p1821
aVgathered
p1822
aVcompliment
p1823
aVavailable
p1824
aVimmoble
p1825
aVdeserving
p1826
aVjavascript
p1827
aVincident
p1828
aVinterface
p1829
aVcornetto
p1830
aVimproved
p1831
aVcolton
p1832
aVthou
p1833
aVthot
p1834
aVbarely
p1835
aVsadaf
p1836
aVpatti
p1837
aVthom
p1838
aVconnection
p1839
aVthiiuu
p1840
aVretarded
p1841
aVapprove
p1842
aVmyspacer
p1843
aVload
p1844
aVelectrician
p1845
aVbell
p1846
aVloan
p1847
aVpleeze
p1848
aVcommunity
p1849
aVrosa
p1850
aVdimensional
p1851
aVblamming
p1852
aVchurch
p1853
aVsammy
p1854
aVwooww
p1855
aVbelt
p1856
aVdevil
p1857
aVpublishing
p1858
aVntar
p1859
aVmonthly
p1860
aVhomevideo
p1861
aVdrobo
p1862
aVhitting
p1863
aVgelato
p1864
aVsmtmes
p1865
aVlikeone
p1866
aVntah
p1867
aVstoopid
p1868
aVlvatt
p1869
aVfire
p1870
aVcaleb
p1871
aVfugativee
p1872
aVfund
p1873
aVdiverted
p1874
aVengage
p1875
aVawake
p1876
aVmishicot
p1877
aVdilay
p1878
aVfunn
p1879
aVkuya
p1880
aVfunk
p1881
aVx0x0
p1882
aVstraight
p1883
aVrespon
p1884
aVattempts
p1885
aVbudget
p1886
aVmlm
p1887
aVadmire
p1888
aVforgetting
p1889
aVerror
p1890
aVkissing
p1891
aVdominic
p1892
aVross
p1893
aVrobin
p1894
aVswim
p1895
aVpound
p1896
aVhoping
p1897
aVmoth
p1898
aVcalculator
p1899
aVducks
p1900
aVswagg
p1901
aVcentennial
p1902
aVtriple
p1903
aVbeautifully
p1904
aVvanish
p1905
aVsaddening
p1906
aVchase
p1907
aVoritentated
p1908
aVfunny
p1909
aVhousemate
p1910
aVchurn
p1911
aVstarlight
p1912
aVfibers
p1913
aVchirren
p1914
aVshorten
p1915
aVrefuring
p1916
aVshorter
p1917
aVeveryoone
p1918
aVvirtually
p1919
aVoffence
p1920
aVdozen
p1921
aVforgiveness
p1922
aVgonne
p1923
aVcappucino
p1924
aVcomprehensive
p1925
aVcigar
p1926
aVstacy
p1927
aVviewing
p1928
aVwalmart
p1929
aVpsd
p1930
aVnickname
p1931
aVinfamous
p1932
aVrecent
p1933
aVkno
p1934
aVyeoyeomanman
p1935
aVhouseshow
p1936
aVmaker
p1937
aVperson
p1938
aVcannes
p1939
aVkelly
p1940
aVknw
p1941
aVclearance
p1942
aVozzie
p1943
aVnormaly
p1944
aVrecoverable
p1945
aVsims
p1946
aVlistening
p1947
aVrobristen
p1948
aVcheddar
p1949
aVamp
p1950
aVsteamers
p1951
aVsidebar
p1952
aVdito
p1953
aVspinners
p1954
aVnefing
p1955
aVyah
p1956
aVcontian
p1957
aVgonns
p1958
aVattractive
p1959
aValoha
p1960
aVhues
p1961
aVbatchmates
p1962
aVcrying
p1963
aVcourtney
p1964
aVflowchart
p1965
aVsurprised
p1966
aVniece
p1967
aVaustralia
p1968
aVkayy
p1969
aVemergency
p1970
aVformat
p1971
aVcouple
p1972
aVimovie
p1973
aVshitty
p1974
aVsuffering
p1975
aVwhatchu
p1976
aVbaskets
p1977
aVrandys
p1978
aVcuteness
p1979
aVstandstill
p1980
aVetrnty
p1981
aVdling
p1982
aVrichie
p1983
aVflannel
p1984
aVpallachinkin
p1985
aVearfone
p1986
aVsorting
p1987
aVpounds
p1988
aVchorus
p1989
aVcontinue
p1990
aVtii
p1991
aVnames
p1992
aVlenin
p1993
aVfaber
p1994
aVpartying
p1995
aVmethods
p1996
aVgoddamn
p1997
aVtivos
p1998
aVunloved
p1999
aVkasia
p2000
aVsight
p2001
aVgreener
p2002
aVpala
p2003
aVcurious
p2004
aVsprint
p2005
aVpale
p2006
aVshaundiviney
p2007
aVbroadband
p2008
aVgateway
p2009
aVreligion
p2010
aVbehave
p2011
aVmasculinity
p2012
aVundrstand
p2013
aVdating
p2014
aVtemple
p2015
aVshooters
p2016
aVbd
p2017
aVbf
p2018
aVbg
p2019
aVunschool
p2020
aVbb
p2021
aVbc
p2022
aVperformed
p2023
aVbm
p2024
aVbo
p2025
aVtiday
p2026
aVconfidence
p2027
aVsmiths
p2028
aVbk
p2029
aVbt
p2030
aVbu
p2031
aVbv
p2032
aVsanta
p2033
aVbs
p2034
aVcarol
p2035
aVbx
p2036
aVaswell
p2037
aVtommy
p2038
aVdeserved
p2039
aVnetflix
p2040
aVhordexp
p2041
aVnosebleed
p2042
aVmelbourne
p2043
aVdeserves
p2044
aVgaying
p2045
aVmassimo
p2046
aVfern
p2047
aVrepair
p2048
aVevery1
p2049
aVcolorado
p2050
aVgarbage
p2051
aVintl
p2052
aVservers
p2053
aVshalabh
p2054
aVtai
p2055
aVhiyaa
p2056
aVlebron
p2057
aVspam
p2058
aVspending
p2059
aVhousemusic
p2060
aVsubmit
p2061
aVcustom
p2062
aVspaz
p2063
aVdownloadable
p2064
aVsuit
p2065
aVanywere
p2066
aVsoonercon
p2067
aVsiteowner
p2068
aVelsewhere
p2069
aVposter
p2070
aVrelaxed
p2071
aVlink
p2072
aVling
p2073
aVline
p2074
aVconsiderable
p2075
aVposted
p2076
aVcia
p2077
aVerick
p2078
aVerich
p2079
aVblowss
p2080
aVut
p2081
aVur
p2082
aVum
p2083
aVui
p2084
aVuh
p2085
aVuk
p2086
aVfaded
p2087
aVsiponyo
p2088
aVug
p2089
aVgahan
p2090
aValarm
p2091
aVyelled
p2092
aVdefined
p2093
aVchai
p2094
aVhaunt
p2095
aVcomming
p2096
aVnoodling
p2097
aVchap
p2098
aVchat
p2099
aVtagalongs
p2100
aVamandas
p2101
aVslipknot
p2102
aVfrozenn
p2103
aVtara
p2104
aVedwards
p2105
aVaccessorizing
p2106
aVmidshift
p2107
aVgrouling
p2108
aVcoded
p2109
aVgourville
p2110
aVcondolence
p2111
aVrevision
p2112
aVwnna
p2113
aVrobots
p2114
aVunplug
p2115
aVmeals
p2116
aVlang
p2117
aVearhole
p2118
aVlane
p2119
aVland
p2120
aVtexted
p2121
aVx10hosting
p2122
aVagh
p2123
aVagf
p2124
aVage
p2125
aVholes
p2126
aVwalked
p2127
aVdow
p2128
aVyiikes
p2129
aVnorwegians
p2130
aVhella
p2131
aVzak
p2132
aVffaf
p2133
aVenrolled
p2134
aVwalker
p2135
aVfresh
p2136
aVmenace
p2137
aVhello
p2138
aVessay
p2139
aVchillis
p2140
aVhampton
p2141
aVcode
p2142
aVscratch
p2143
aVresults
p2144
aVtenishia
p2145
aVlegal
p2146
aVfreakin
p2147
aVgossip
p2148
aVchillin
p2149
aVnanowrimo
p2150
aVpasco
p2151
aVmonaco
p2152
aVdestress
p2153
aVconcerned
p2154
aVsend
p2155
aVwrods
p2156
aVoceanfront
p2157
aVdislike
p2158
aVhaircuts
p2159
aVtequila
p2160
aVsent
p2161
aVyourheart
p2162
aVstocked
p2163
aVgarden
p2164
aVtorture
p2165
aVfuun
p2166
aVcontinues
p2167
aVpagination
p2168
aVlopez
p2169
aVcolapsed
p2170
aVscoresheet
p2171
aVbubblewrap
p2172
aVfullstop
p2173
aVethos
p2174
aVkristenstew
p2175
aVmagic
p2176
aVharbor
p2177
aVeva
p2178
aVmarry
p2179
aVgettin
p2180
aVeve
p2181
aVtry
p2182
aVrace
p2183
aVlittlebit
p2184
aVjobber
p2185
aVprobz
p2186
aVtrs
p2187
aVtru
p2188
aVkeene
p2189
aVlogistics
p2190
aVtunisiaa
p2191
aVreviising
p2192
aVvmwfusion
p2193
aVimply
p2194
aVvideo
p2195
aVflanigan
p2196
aVimpls
p2197
aVodd
p2198
aVgraduating
p2199
aVcoughcough
p2200
aVsweaty
p2201
aVbestfriends
p2202
aVindian
p2203
aVtwins
p2204
aVseing
p2205
aVcontinously
p2206
aVbird
p2207
aVled
p2208
aVlee
p2209
aVleg
p2210
aVjammies
p2211
aVlhinhui
p2212
aVpunch
p2213
aVleo
p2214
aVdouches
p2215
aVlicence
p2216
aVubuntu
p2217
aVlex
p2218
aVlayout
p2219
aVinvented
p2220
aVparkway
p2221
aValis
p2222
aVfrenemies
p2223
aVreceive
p2224
aVinvolved
p2225
aVcasino
p2226
aVyeehaa
p2227
aVmosquito
p2228
aVperistalsis
p2229
aVeatin
p2230
aVsurvey
p2231
aVgrandchild
p2232
aVmenu
p2233
aVpopcorn
p2234
aVopinion
p2235
aVresidents
p2236
aVmakes
p2237
aVexplain
p2238
aVinvolves
p2239
aVthats
p2240
aVbinge
p2241
aValtho
p2242
aVfirefox
p2243
aVhectic
p2244
aVmelina
p2245
aVrushers
p2246
aVerroring
p2247
aVreserved
p2248
aVmens
p2249
aVtools
p2250
aVsgg
p2251
aVstanding
p2252
aVrihanna
p2253
aVzit
p2254
aVnissi
p2255
aVzip
p2256
aVillegal
p2257
aVtheme
p2258
aVeleven
p2259
aVdoubt
p2260
aVtahoe
p2261
aVchocolatee
p2262
aVmidday
p2263
aVrick
p2264
aVaycastillo15
p2265
aVbobbiegir
p2266
aVbabe
p2267
aVrich
p2268
aVcomparison
p2269
aVschossow
p2270
aVknoow
p2271
aVcarrying
p2272
aVrubbish
p2273
aVbaby
p2274
aVcentral
p2275
aVcharity
p2276
aVcustomer
p2277
aVthiz
p2278
aVballs
p2279
aVanimals
p2280
aVanika
p2281
aVchallenge
p2282
aVclients
p2283
aVthin
p2284
aVcoffie
p2285
aVslid
p2286
aVprocess
p2287
aVlock
p2288
aVrode
p2289
aVpieces
p2290
aVascension
p2291
aVslit
p2292
aVslip
p2293
aVtwitpic
p2294
aVbenn
p2295
aVeducational
p2296
aVpeanutbutter
p2297
aVdestroying
p2298
aVhongkong
p2299
aVrejoicing
p2300
aVdelay
p2301
aVanimal
p2302
aVendoscope
p2303
aVmysteries
p2304
aVcomedy
p2305
aVoz
p2306
aVmusicnya
p2307
aVtien
p2308
aVawait
p2309
aVtied
p2310
aVsmilley
p2311
aVfitz
p2312
aVnonee
p2313
aVfits
p2314
aVjumpstart
p2315
aVahahaha
p2316
aVtomato
p2317
aVrealized
p2318
aVmuppets
p2319
aVclarkson
p2320
aVunderused
p2321
aVcosco
p2322
aVmjh
p2323
aVrobot
p2324
aVnancy
p2325
aVclassy
p2326
aVwatermelon
p2327
aVvolunteers
p2328
aVchurton
p2329
aVproducer
p2330
aVmove
p2331
aVdoubtful
p2332
aVsnobbishness
p2333
aVhahaaha
p2334
aVhotcakes
p2335
aVperfect
p2336
aVcrabby
p2337
aVchosen
p2338
aVlulzy
p2339
aVdegrees
p2340
aVjody
p2341
aVpuerto
p2342
aVinnteresting
p2343
aVdesigns
p2344
aVcondense
p2345
aVpython
p2346
aVdocs
p2347
aVnada
p2348
aVhanalei
p2349
aVbat
p2350
aVdock
p2351
aVdougie
p2352
aVbothering
p2353
aVkiss
p2354
aVstabilise
p2355
aVrealize
p2356
aVhollie
p2357
aVbette
p2358
aVbetta
p2359
aVsniffing
p2360
aVdelightful
p2361
aVbetty
p2362
aVtruth
p2363
aVrising
p2364
aVmakakain
p2365
aVglasses
p2366
aVdoinn
p2367
aVbeginner
p2368
aVtents
p2369
aVdoing
p2370
aVsociety
p2371
aVpreetty
p2372
aVbooks
p2373
aVstatic
p2374
aVbumm
p2375
aVjagged
p2376
aVblocks
p2377
aVmeth
p2378
aVdisco
p2379
aVwonna
p2380
aVjuzt
p2381
aVdidums
p2382
aVyous
p2383
aVboutique
p2384
aVjuzz
p2385
aVbubbie
p2386
aVfreshman
p2387
aVbunches
p2388
aVhilarious
p2389
aVbac
p2390
aVshut
p2391
aVwallpaper
p2392
aVmuahahahaha
p2393
aVgreedy
p2394
aVgrilled
p2395
aVshud
p2396
aVhogwarts
p2397
aVsurely
p2398
aVcollection
p2399
aVembarrass
p2400
aVcraving
p2401
aVscary
p2402
aVbarca
p2403
aVscars
p2404
aVdavid
p2405
aVchilly
p2406
aVpudding
p2407
aVyuup
p2408
aVyuus
p2409
aVchills
p2410
aVlinnet
p2411
aVscare
p2412
aVscarf
p2413
aVfda
p2414
aVneighborhood
p2415
aVpoquito
p2416
aVsuppliment
p2417
aVelyse
p2418
aVscene
p2419
aVjesus
p2420
aVlikonog
p2421
aVspaghetti
p2422
aVstark
p2423
aVcruuell
p2424
aVowner
p2425
aVihc
p2426
aVenjoyin
p2427
aVprank
p2428
aVsharon
p2429
aVfascinating
p2430
aVbummin
p2431
aVfestival
p2432
aVsystem
p2433
aVeinstein
p2434
aVgcse
p2435
aVgoodmornings
p2436
aVlaterz
p2437
aVbehaved
p2438
aVspaceship
p2439
aVlaterr
p2440
aVhaves
p2441
aVgummy
p2442
aVtrackle
p2443
aVstomach
p2444
aVshorts
p2445
aVadaptor
p2446
aVgotcha
p2447
aVlou
p2448
aVmegan
p2449
aVdepressing
p2450
aVgrandpa
p2451
aVextensions
p2452
aVasdkndfdriohdg
p2453
aVsteel
p2454
aVbeauitful
p2455
aVsufjan
p2456
aVbother
p2457
aVjenson
p2458
aVreacted
p2459
aVthers
p2460
aVsuling
p2461
aVbradiewebb
p2462
aVtortures
p2463
aVmorrison
p2464
aVsteer
p2465
aVokkay
p2466
aVtwittering
p2467
aVhashtags
p2468
aVpoisons
p2469
aVspelled
p2470
aVtonight
p2471
aVvaca
p2472
aVensambel
p2473
aVsoak
p2474
aVstudying
p2475
aVlilo
p2476
aVawed
p2477
aVmills
p2478
aVhangover
p2479
aVwaffles
p2480
aVbesdies
p2481
aVlinda
p2482
aVkorean
p2483
aVlily
p2484
aVtoughest
p2485
aVlancaster
p2486
aVallow
p2487
aVmanor
p2488
aVclaremont
p2489
aVcreek
p2490
aVvisa
p2491
aVmedal
p2492
aVstronger
p2493
aVskittles
p2494
aVpreplan
p2495
aVfiasco
p2496
aVbrew
p2497
aVwounded
p2498
aVpainting
p2499
aVatmosphere
p2500
aVoreos
p2501
aVbiked
p2502
aVlmaoo
p2503
aVscotty
p2504
aVbring
p2505
aVmanchester
p2506
aVlloyd
p2507
aVbedroom
p2508
aVrough
p2509
aVattributes
p2510
aVdecade
p2511
aVpodcast
p2512
aVfrenchy
p2513
aVjay
p2514
aVjaw
p2515
aVriveting
p2516
aVjar
p2517
aVjas
p2518
aVjan
p2519
aVjam
p2520
aVtape
p2521
aVjak
p2522
aVadventures
p2523
aVriding
p2524
aVjac
p2525
aVleaderboard
p2526
aVmeant
p2527
aVhandle
p2528
aVsweetie
p2529
aVlistened
p2530
aVmeans
p2531
aVfamiliar
p2532
aVstavros
p2533
aVcranky
p2534
aVlucky
p2535
aVwwdc
p2536
aVeurgh
p2537
aVsinus
p2538
aVbondi
p2539
aVsmash
p2540
aVfeww
p2541
aVdenmark
p2542
aVlala
p2543
aVhugged
p2544
aVwhoohoo
p2545
aVkhateebs
p2546
aVstuff
p2547
aVfuzzball
p2548
aVdallas
p2549
aVohio
p2550
aVffcc
p2551
aVcatshitone
p2552
aVguessing
p2553
aVbtw
p2554
aVtemporarily
p2555
aVtheonlinemom
p2556
aVmoldavian
p2557
aVframe
p2558
aVcrayons
p2559
aVpacket
p2560
aVslanted
p2561
aVstickam
p2562
aVramazotti
p2563
aVpacked
p2564
aVwire
p2565
aVjurassic
p2566
aVstongehenge
p2567
aVkrispy
p2568
aVthougth
p2569
aVemaik
p2570
aVyoull
p2571
aVemail
p2572
aVkotak
p2573
aVbutty
p2574
aVbridges
p2575
aVvitamin
p2576
aVhogging
p2577
aVgnomes
p2578
aVbreakfest
p2579
aVstaring
p2580
aVtantrum
p2581
aVfigured
p2582
aVbloodhound
p2583
aVpimping
p2584
aVinvited
p2585
aVomale
p2586
aVxox
p2587
aVtlc
p2588
aVetc
p2589
aVasym
p2590
aVeta
p2591
aVfigures
p2592
aVbristol
p2593
aVtld
p2594
aVjudging
p2595
aVluddite
p2596
aVaye
p2597
aVwritin
p2598
aVco
p2599
aVcn
p2600
aVarrgh
p2601
aVcc
p2602
aVca
p2603
aVcd
p2604
aViamstayingalive
p2605
aVucf
p2606
aVtaylor
p2607
aVoregano
p2608
aVboiss
p2609
aVwhispering
p2610
aVcr
p2611
aVoakland
p2612
aVchromium
p2613
aVman2man
p2614
aVct
p2615
aVkindergarten
p2616
aVkillings
p2617
aVtaste
p2618
aVaddon
p2619
aVdrank
p2620
aVhottest
p2621
aVwaste
p2622
aVcarwash
p2623
aVfuntime
p2624
aVliifee
p2625
aVdescribe
p2626
aVcommuter
p2627
aVneighbour
p2628
aVmeiko
p2629
aVroasting
p2630
aVhobby
p2631
aVatlanta
p2632
aVsenayan
p2633
aVlaser
p2634
aVimats
p2635
aVeaton
p2636
aVbeack
p2637
aVhahaha
p2638
aVfurrymuck
p2639
aVrbc
p2640
aVarchie
p2641
aVva
p2642
aVstuffing
p2643
aVpitr
p2644
aVbritains
p2645
aVsitn
p2646
aVvi
p2647
aVinsanely
p2648
aVsurprisingly
p2649
aVvo
p2650
aVlust
p2651
aVovershare
p2652
aVvs
p2653
aVtush
p2654
aVtenor
p2655
aVcinqo
p2656
aVrubidoux
p2657
aVtattoo
p2658
aVblitzy
p2659
aVstandupp
p2660
aVchavvy
p2661
aVpaulo
p2662
aVmatthew
p2663
aVdigging
p2664
aVbon
p2665
aVandroid
p2666
aVpaula
p2667
aVsada
p2668
aVbalm
p2669
aVball
p2670
aVsadd
p2671
aVadmins
p2672
aVbali
p2673
aVbald
p2674
aVnationally
p2675
aVcoffe
p2676
aVforecasts
p2677
aVinstallments
p2678
aVphx
p2679
aVdust
p2680
aVikea
p2681
aVphp
p2682
aVoverread
p2683
aVshotgun
p2684
aVcolour
p2685
aVindonesia
p2686
aVkrystinas
p2687
aVdaw
p2688
aVcommand
p2689
aVfilesystem
p2690
aVariza
p2691
aVaudio
p2692
aVdrawing
p2693
aVsnake
p2694
aVcharitytweetuptour
p2695
aVbananas
p2696
aVmoments
p2697
aVlathering
p2698
aVpaul
p2699
aVcowpats
p2700
aVweb
p2701
aVwee
p2702
aVwed
p2703
aVganna
p2704
aVwen
p2705
aVclipped
p2706
aVcrack
p2707
aVcontradictory
p2708
aVtics
p2709
aVincreased
p2710
aVchecking
p2711
aVchancellor
p2712
aVmonique
p2713
aVhaul
p2714
aVfive
p2715
aVdesk
p2716
aVhehehehe
p2717
aVnvm
p2718
aVpassword
p2719
aVpies
p2720
aVlittlebird
p2721
aVwrkn
p2722
aVbritlee
p2723
aVonion
p2724
aVemmy
p2725
aVsprain
p2726
aVgaining
p2727
aVhabitat
p2728
aVfootage
p2729
aVmurd
p2730
aVfbing
p2731
aVgymnastics
p2732
aVchoosing
p2733
aVloaded
p2734
aVthizzle
p2735
aVblonde
p2736
aVtransport
p2737
aVwetter
p2738
aVkitties
p2739
aVliterally
p2740
aVavoid
p2741
aVfedex
p2742
aVwoohoo
p2743
aVpassion
p2744
aVtruffle
p2745
aVkiddo
p2746
aVphilyd
p2747
aVdeciding
p2748
aVbiology
p2749
aVblowing
p2750
aVschedule
p2751
aVselecting
p2752
aVjokezz
p2753
aVpressure
p2754
aVstage
p2755
aVgained
p2756
aVsister
p2757
aVslayer
p2758
aVunion
p2759
aVseeds
p2760
aVirie
p2761
aVwhistles
p2762
aVmerah
p2763
aVcameron
p2764
aVdocumentary
p2765
aVrevise
p2766
aVswimming
p2767
aVtheyr
p2768
aVtwatter
p2769
aVcontractions
p2770
aVletters
p2771
aVcoverage
p2772
aVpussy
p2773
aVwoodshop
p2774
aVerrands
p2775
aVcommitment
p2776
aVsnuggling
p2777
aVscreamed
p2778
aVroady
p2779
aVlung
p2780
aVlund
p2781
aVroads
p2782
aVstonebridge
p2783
aVterminated
p2784
aVbrownies
p2785
aVhehe
p2786
aVdonzo
p2787
aVspots
p2788
aVhws
p2789
aVhrmm
p2790
aVtweetweet
p2791
aVrestricts
p2792
aVfrustration
p2793
aVhuaa
p2794
aVkooks
p2795
aVyrs
p2796
aVtoothpaste
p2797
aVnaturally
p2798
aVfunnel
p2799
aVexsist
p2800
aVgratz
p2801
aVgrats
p2802
aVdelivery
p2803
aVxbox360
p2804
aVgrate
p2805
aVsrry
p2806
aVdelivers
p2807
aVfunner
p2808
aVapplause
p2809
aVcount
p2810
aVflagstaff
p2811
aVspectacular
p2812
aVjordin
p2813
aVofficial
p2814
aVplacey
p2815
aVtriumphant
p2816
aVdosent
p2817
aVconvince
p2818
aVidol
p2819
aVcorpsey
p2820
aVcpanel
p2821
aVbearing
p2822
aVirish
p2823
aVreciprocated
p2824
aVrightly
p2825
aVint
p2826
aVkingston
p2827
aVexcitedd
p2828
aVslowing
p2829
aVunscathed
p2830
aVafiqah
p2831
aVaudrina
p2832
aVcello
p2833
aVanesthesia
p2834
aVnonetheless
p2835
aVdeadly
p2836
aVmisha
p2837
aVlately
p2838
aVderrick
p2839
aVshannon
p2840
aVfonud
p2841
aVrepeat
p2842
aVmonday
p2843
aVtides
p2844
aVunoriginal
p2845
aVin2
p2846
aVchance
p2847
aVnicest
p2848
aVbadass
p2849
aVshattering
p2850
aVvein
p2851
aVinspiration
p2852
aVghost
p2853
aVpista
p2854
aVperspecitves
p2855
aVtanned
p2856
aVlasted
p2857
aVrule
p2858
aVmitm4e
p2859
aVtorrie
p2860
aVcompete
p2861
aVheheeh
p2862
aVpreggy
p2863
aVeoy
p2864
aVgardens
p2865
aVwoewodin
p2866
aVinning
p2867
aVblisters
p2868
aVbizzare
p2869
aVmvv
p2870
aVnursery
p2871
aVcontroversial
p2872
aVciap
p2873
aVmansion
p2874
aVsaved
p2875
aVdrinkin
p2876
aVporno
p2877
aVatki
p2878
aVswappable
p2879
aVblutsvende
p2880
aVprobbs
p2881
aVneighbours
p2882
aVbike
p2883
aVvoted
p2884
aVslowest
p2885
aVuulitin
p2886
aVergh
p2887
aVworth
p2888
aVpartys
p2889
aVblanket
p2890
aVmania
p2891
aVjacob
p2892
aVpostpone
p2893
aVmewithoutyou
p2894
aVtickets
p2895
aVcmh
p2896
aVupload
p2897
aVcma
p2898
aVhumidity
p2899
aVannounced
p2900
aVcmt
p2901
aVcms
p2902
aVchew
p2903
aVpaperback
p2904
aVprising
p2905
aVblasphemy
p2906
aVphones
p2907
aVmidsummer
p2908
aVsabbath
p2909
aVchef
p2910
aVhandball
p2911
aVeurovision
p2912
aVchem
p2913
aVspecs
p2914
aVeveryones
p2915
aVdeclassified
p2916
aVlizard
p2917
aVofficiallt
p2918
aVvikki
p2919
aVpetri
p2920
aVneat
p2921
aVofficially
p2922
aVtold
p2923
aVcrunch
p2924
aVbi
p2925
aVfishdude
p2926
aVdreadful
p2927
aVinterns
p2928
aVwrapping
p2929
aVbangkok
p2930
aVpursuit
p2931
aVhving
p2932
aVsmartwater
p2933
aVtwitterers
p2934
aVgerry
p2935
aVbalance
p2936
aVdaughter
p2937
aVshug
p2938
aVitems
p2939
aVstudy
p2940
aVfoolishness
p2941
aVitunes
p2942
aVplodd
p2943
aVako
p2944
aVsmoke
p2945
aVstressed
p2946
aVlonesome
p2947
aVbunker
p2948
aVaka
p2949
aVotters
p2950
aVkates
p2951
aVtml
p2952
aVbru
p2953
aVgraders
p2954
aVdarlings
p2955
aVhighly
p2956
aVbro
p2957
aVcarphone
p2958
aVopportunities
p2959
aVbri
p2960
aVofflinee
p2961
aVtotal
p2962
aVbrb
p2963
aVsarah
p2964
aVplot
p2965
aVsaran
p2966
aValligator
p2967
aVsweater
p2968
aVindians
p2969
aVnovelrace
p2970
aVinit
p2971
aVinsult
p2972
aVbirthdauy
p2973
aVtryin
p2974
aVsweated
p2975
aVrenovations
p2976
aVgiovanna
p2977
aVir
p2978
aVhahh
p2979
aVblockdreamers
p2980
aVstarburst
p2981
aVhaha
p2982
aVinfusion
p2983
aVaward
p2984
aVfesbukan
p2985
aVinteraction
p2986
aVrotschild
p2987
aVblocking
p2988
aVuploadin
p2989
aVfeenin
p2990
aVbunnies
p2991
aVword
p2992
aVwore
p2993
aVerr
p2994
aVjess
p2995
aVohyeah
p2996
aVtheories
p2997
aVqood
p2998
aVgroves
p2999
aVcuddle
p3000
aVtna
p3001
aVera
p3002
aVblooming
p3003
aVelbow
p3004
aVcrackers
p3005
aVindie
p3006
aVindia
p3007
aVlites
p3008
aVheartless
p3009
aVounds
p3010
aVmadonna
p3011
aVtotaled
p3012
aVcrofty
p3013
aVtornadoes
p3014
aVrecovery
p3015
aVprovide
p3016
aVagony
p3017
aVegyptian
p3018
aVnuts
p3019
aVtwibe
p3020
aVrecovers
p3021
aVinterview
p3022
aVoperatic
p3023
aVfudge
p3024
aVgamble
p3025
aVpizza
p3026
aVfever
p3027
aVlah
p3028
aVbday
p3029
aVearlier
p3030
aVmemorial
p3031
aVlab
p3032
aVlax
p3033
aVlay
p3034
aVadii
p3035
aVlaw
p3036
aVlap
p3037
aVbodybugg
p3038
aVgrieving
p3039
aVshiprocked
p3040
aVunizh
p3041
aVchillen
p3042
aVwknd
p3043
aVfah
p3044
aVhasta
p3045
aVgreek
p3046
aVgreen
p3047
aVangelique
p3048
aVambulance
p3049
aVfan
p3050
aVsalon
p3051
aVpopsicle
p3052
aVoffice
p3053
aVzee
p3054
aVmuffin
p3055
aVfam
p3056
aVawful
p3057
aVpascal
p3058
aVnsfw
p3059
aVjapan
p3060
aVcws
p3061
aVticket
p3062
aVhighlights
p3063
aVmasterchef
p3064
aVdenver
p3065
aVfag
p3066
aVpotentially
p3067
aVramalama
p3068
aVbelly
p3069
aVkindergarden
p3070
aVeventually
p3071
aVcoffee
p3072
aVpegi
p3073
aVthee
p3074
aVsafe
p3075
aVwokee
p3076
aVtouring
p3077
aVbreak
p3078
aVband
p3079
aVbang
p3080
aVsack
p3081
aVmgmt
p3082
aVther
p3083
aVbank
p3084
aVbread
p3085
aVwhoop
p3086
aVsidelines
p3087
aVcrock
p3088
aVrocks
p3089
aVdingy
p3090
aVreasonable
p3091
aVcashmere
p3092
aVcostello
p3093
aVryry
p3094
aVroxy
p3095
aVlogs
p3096
aVwebber
p3097
aVslex
p3098
aVgavins
p3099
aVhosted
p3100
aVlogo
p3101
aVwriteathon
p3102
aVwhining
p3103
aVnetwork
p3104
aVcameras
p3105
aVnetfree
p3106
aVforty
p3107
aVstrangers
p3108
aVdaniel
p3109
aVmedicine
p3110
aVgoodsex
p3111
aVjudith
p3112
aVbuhaha
p3113
aVmuter2
p3114
aVbarrier
p3115
aVleftovers
p3116
aVmourning
p3117
aVcrwd
p3118
aVvets
p3119
aVrandomtimes5
p3120
aVusaras
p3121
aVborred
p3122
aVntb
p3123
aVeaglecam
p3124
aVmvs
p3125
aVrecovering
p3126
aVcreated
p3127
aVkenapa
p3128
aVmvc
p3129
aVwhatta
p3130
aVincorporated
p3131
aVprogramme
p3132
aVfootsteps
p3133
aVclouding
p3134
aVbessiee
p3135
aVchopped
p3136
aVorganize
p3137
aVdaunting
p3138
aVrender
p3139
aVdictionary
p3140
aVdelicious
p3141
aVcomin
p3142
aVcomic
p3143
aVmojo
p3144
aVrated
p3145
aVrejects
p3146
aVopportunity
p3147
aVseduction
p3148
aVzep
p3149
aVrates
p3150
aVtune
p3151
aVinboxzero
p3152
aVjohn
p3153
aVdogs
p3154
aVovertired
p3155
aVvegemite
p3156
aVhappily
p3157
aVfreekin
p3158
aValbert
p3159
aVrejected
p3160
aVtee
p3161
aVithanx
p3162
aVdisband
p3163
aVcereal
p3164
aVnahh
p3165
aVwasted
p3166
aVsilverado
p3167
aVlucas
p3168
aVbebe
p3169
aVmercy
p3170
aVebar
p3171
aVtarget
p3172
aVtavern
p3173
aVhike
p3174
aVscenes
p3175
aVebay
p3176
aVmerch
p3177
aVpainful
p3178
aViron
p3179
aVdevious
p3180
aVpowers
p3181
aVminus
p3182
aVenhancement
p3183
aVtastumi
p3184
aVyoure
p3185
aVrewrite
p3186
aVsmoker
p3187
aVhorriblee
p3188
aVinfront
p3189
aVbaldheaded
p3190
aVhat3mlha
p3191
aVforced
p3192
aVquieter
p3193
aVchega
p3194
aVmargaux
p3195
aVreall
p3196
aVconvenient
p3197
aVforcei
p3198
aVrealy
p3199
aVsubjects
p3200
aVluxury
p3201
aVthundering
p3202
aVcurfew
p3203
aVexplanation
p3204
aVtelemarketer
p3205
aVtastie
p3206
aVqualities
p3207
aVmaiden
p3208
aVbruce
p3209
aVroma
p3210
aVgotsta
p3211
aVextending
p3212
aVoptimized
p3213
aVgermany
p3214
aVphase
p3215
aVwebcam
p3216
aVincomplete
p3217
aValumni
p3218
aVnihh
p3219
aVjudgmental
p3220
aVwuold
p3221
aVaunt
p3222
aVsun
p3223
aVvoting
p3224
aVgirlfrends
p3225
aVnotion
p3226
aVfitted
p3227
aVreserve
p3228
aVdecidedly
p3229
aVcheesey
p3230
aVperezhilton
p3231
aVyeh
p3232
aVdoped
p3233
aVbrief
p3234
aVdopey
p3235
aVkeywords
p3236
aVnephew
p3237
aVfirehose
p3238
aVenjoyed
p3239
aVtoast
p3240
aVdepth
p3241
aVrainmaster
p3242
aVchong
p3243
aVkinky
p3244
aVhrs
p3245
aValdo
p3246
aVscreening
p3247
aVwaha
p3248
aVsporting
p3249
aVpersonality
p3250
aVtestweek
p3251
aVpunctures
p3252
aVcappuccino
p3253
aVdj
p3254
aVdk
p3255
aVdh
p3256
aVdi
p3257
aVcolemans
p3258
aVdd
p3259
aVde
p3260
aVdc
p3261
aVhussain
p3262
aVda
p3263
aVwatson
p3264
aVdx
p3265
aVdowntime
p3266
aVgoren
p3267
aVdw
p3268
aVnasty
p3269
aVdr
p3270
aVds
p3271
aVdp
p3272
aVinterwebz
p3273
aVruns
p3274
aVemc
p3275
aVemo
p3276
aVlexington
p3277
aVweboword
p3278
aVbuat
p3279
aVwomb
p3280
aVsteal
p3281
aVsecretary
p3282
aVbesties
p3283
aVhuman
p3284
aVlemonade
p3285
aVdepends
p3286
aVdiscussions
p3287
aVmiserable
p3288
aVsketches
p3289
aVbunting
p3290
aVmangoes
p3291
aVthngs
p3292
aVmitch
p3293
aVwhaat
p3294
aVrocket
p3295
aVbabay
p3296
aVunable
p3297
aVglutamine
p3298
aVjumpers
p3299
aVlaralou
p3300
aVmanky
p3301
aVterms
p3302
aVtigherheat
p3303
aVwa
p3304
aVautoship
p3305
aVwk
p3306
aVchermy
p3307
aVwt
p3308
aVmsning
p3309
aVnudge
p3310
aVwy
p3311
aVkitchen
p3312
aVcop
p3313
aVcos
p3314
aVcow
p3315
aVhasin
p3316
aVill
p3317
aVcoz
p3318
aVtracks
p3319
aVtweetycakes
p3320
aVhummus
p3321
aVilu
p3322
aVchappelle
p3323
aVvodahost
p3324
aVbrad
p3325
aVmartabak
p3326
aVrequests
p3327
aVcom
p3328
aVcoo
p3329
aVcon
p3330
aVtwitterverse
p3331
aVtough
p3332
aVrickrolled
p3333
aVgodbless
p3334
aVroyal
p3335
aVchks
p3336
aVtons
p3337
aVtony
p3338
aVbikin
p3339
aVdammnn
p3340
aVspeak
p3341
aVstrong
p3342
aVnoes
p3343
aVmmee
p3344
aVsleepover
p3345
aVcosgrove
p3346
aVprefs
p3347
aVscarecrow
p3348
aVarena
p3349
aVpartnership
p3350
aVfamilies
p3351
aVbeloved
p3352
aVrelaxing
p3353
aVattacked
p3354
aVwakey
p3355
aVshoutin
p3356
aVfest
p3357
aVthankie
p3358
aVsexting
p3359
aVgracious
p3360
aVapplied
p3361
aVsampson
p3362
aVaiz
p3363
aVmorningloves
p3364
aVair
p3365
aVaim
p3366
aVgna
p3367
aVapplies
p3368
aValratos
p3369
aVvoice
p3370
aVinspired
p3371
aVlaunched
p3372
aVmistake
p3373
aVmoring
p3374
aVmakinng
p3375
aVitsmyeyes
p3376
aVworldcup
p3377
aVdumped
p3378
aVdsi
p3379
aVsting
p3380
aVaudrey
p3381
aVskipping
p3382
aVstraits
p3383
aVcone
p3384
aVconf
p3385
aVhebrew
p3386
aVconfirmed
p3387
aVblockbuster
p3388
aVperform
p3389
aVjerry
p3390
aVvanessa
p3391
aVfollowfriday
p3392
aVruhani
p3393
aVavoids
p3394
aVplates
p3395
aVbunny
p3396
aVwheel
p3397
aVindependent
p3398
aVnih
p3399
aVraid
p3400
aVfuss
p3401
aVswell
p3402
aVhorseshoes
p3403
aVhang
p3404
aVrecco
p3405
aVrain
p3406
aVhand
p3407
aVpubs
p3408
aVthinkgeek
p3409
aVfaiths
p3410
aVwheew
p3411
aVprescribed
p3412
aVkept
p3413
aVdishes
p3414
aVhopping
p3415
aVthx
p3416
aVwisps
p3417
aVtht
p3418
aVths
p3419
aVthr
p3420
aVoptions
p3421
aVtho
p3422
aVmybride
p3423
aVcontact
p3424
aVdrii
p3425
aVwhther
p3426
aVtormenting
p3427
aVmanuka
p3428
aVmusical
p3429
aVtha
p3430
aVsoonish
p3431
aVboltonerr
p3432
aVsolaris
p3433
aVl8r
p3434
aVquoted
p3435
aVgods
p3436
aVmokcamp
p3437
aVthankk
p3438
aVhahahha
p3439
aVgravity
p3440
aVnarcissistic
p3441
aVhottie
p3442
aVthanks
p3443
aVdreamt
p3444
aVsmoothies
p3445
aVbiig
p3446
aVrepost
p3447
aVadding
p3448
aVhills
p3449
aVphotographer
p3450
aVjosh
p3451
aVreuniting
p3452
aVshout
p3453
aVspread
p3454
aVboard
p3455
aVcleann
p3456
aVopenings
p3457
aVshoulder
p3458
aVsmdh
p3459
aVboxed
p3460
aVmayb
p3461
aVmayo
p3462
aVcaps
p3463
aVboxes
p3464
aVboxer
p3465
aVbastards
p3466
aVdesigners
p3467
aVtiredd
p3468
aVglitch
p3469
aVxbox
p3470
aVnight
p3471
aVsecurity
p3472
aVdel
p3473
aVhav3
p3474
aVhonored
p3475
aVlashes
p3476
aVcollarbone
p3477
aVcoerce
p3478
aVborn
p3479
aVunless
p3480
aVbord
p3481
aVwhatchoo
p3482
aVn00bs
p3483
aVconfusing
p3484
aVhumor
p3485
aVbomkerz
p3486
aVpressies
p3487
aVpurple
p3488
aVflare
p3489
aVcomments
p3490
aVfilming
p3491
aVdenied
p3492
aVbeating
p3493
aVcommenta
p3494
aVcolumbus
p3495
aVpls
p3496
aVpeel
p3497
aVdefend
p3498
aVmarketing
p3499
aVpose
p3500
aVplz
p3501
aVtreos
p3502
aVple
p3503
aVphew
p3504
aVevernote
p3505
aVpost
p3506
aVwoamn
p3507
aVdayee
p3508
aVpulp
p3509
aVzicam
p3510
aVdiner
p3511
aVmonths
p3512
aVdotty
p3513
aVelectrics
p3514
aVtonightt
p3515
aVsqueezeed
p3516
aVdigestion
p3517
aVola
p3518
aVwasting
p3519
aVpays
p3520
aVworkeres
p3521
aVdelighted
p3522
aVmeringues
p3523
aVgearing
p3524
aVrendering
p3525
aVbalanced
p3526
aVsamee
p3527
aVtaffitni
p3528
aVthankiezee
p3529
aVwan
p3530
aVdeception
p3531
aVahahah
p3532
aVwah
p3533
aVhehee
p3534
aVjessicauta
p3535
aVwaa
p3536
aVfight
p3537
aVconservation
p3538
aVwax
p3539
aVdanica
p3540
aVwat
p3541
aVwar
p3542
aVlowest
p3543
aVinfomercial
p3544
aVcryy
p3545
aVbecoming
p3546
aVguppies
p3547
aVmaddest
p3548
aVneedles
p3549
aVtrue
p3550
aVdooper
p3551
aVreset
p3552
aVabsent
p3553
aVresponding
p3554
aVinput
p3555
aVwhyy
p3556
aVmts
p3557
aVmtv
p3558
aVemotional
p3559
aVwhyd
p3560
aVmta
p3561
aVmedication
p3562
aVhotter
p3563
aVmoore
p3564
aVfreeie
p3565
aVknoww
p3566
aVmilano
p3567
aVmuscular
p3568
aVguessed
p3569
aVmoll
p3570
aVsnapeness
p3571
aVprayer
p3572
aVarchive
p3573
aVphysical
p3574
aVdying
p3575
aVstake
p3576
aVhandmade
p3577
aVreality
p3578
aVholding
p3579
aVtest
p3580
aVunwilling
p3581
aVscored
p3582
aVfunerall
p3583
aVaobut
p3584
aVbrothers
p3585
aVtruncate
p3586
aVjuices
p3587
aValoe2go
p3588
aVwelcome
p3589
aVupdate
p3590
aVgobby
p3591
aVbelive
p3592
aVsociology
p3593
aVpythia
p3594
aVscores
p3595
aVdetox
p3596
aVdulce
p3597
aVspeeddating
p3598
aVbedd
p3599
aVsprits
p3600
aVflag
p3601
aVbeds
p3602
aVloyal
p3603
aVnicier
p3604
aVlineup
p3605
aVsongs
p3606
aVhannahn
p3607
aVrevisionisation
p3608
aVswitched
p3609
aVdance
p3610
aVgrateful
p3611
aVbattle
p3612
aVrealz
p3613
aVreeaally
p3614
aVlayers
p3615
aVsupposedly
p3616
aVfanfiction
p3617
aVgrape
p3618
aVsomthing
p3619
aVzone
p3620
aVmidler
p3621
aVabsolutly
p3622
aVflash
p3623
aVgigs
p3624
aVpermanently
p3625
aVrhythm
p3626
aVhumm
p3627
aVbrown
p3628
aVprotective
p3629
aVgrill
p3630
aVhannah
p3631
aVemergencies
p3632
aVfol
p3633
aVvegas
p3634
aVkitten
p3635
aVtrouble
p3636
aVblast
p3637
aVsososo
p3638
aVmargarita
p3639
aVlilah
p3640
aVshittyy
p3641
aVtrifecta
p3642
aVgud
p3643
aVguh
p3644
aVgun
p3645
aVgum
p3646
aVmoonface
p3647
aVanbesol
p3648
aVgut
p3649
aVguy
p3650
aVupper
p3651
aVrevolution
p3652
aVhtc
p3653
aVtemples
p3654
aVdiscover
p3655
aVcost
p3656
aVmayor
p3657
aVmuchito
p3658
aVmigraines
p3659
aVcosy
p3660
aVparticipar
p3661
aVlmbo
p3662
aVcurse
p3663
aVtweeple
p3664
aVharu
p3665
aVdlr
p3666
aVblotches
p3667
aVshares
p3668
aVuniform
p3669
aVtarantula
p3670
aVsupporting
p3671
aVpredicting
p3672
aVexplosion
p3673
aVconfirmation
p3674
aVdownloaded
p3675
aVhaappyy
p3676
aVhoops
p3677
aVteacher
p3678
aVchange
p3679
aVknowledge
p3680
aVsending
p3681
aVyoour
p3682
aVexemption
p3683
aVayudamee
p3684
aVlakers
p3685
aVtrial
p3686
aVbangs
p3687
aVfranklin
p3688
aVrilling
p3689
aVusually
p3690
aVpillow
p3691
aVmontreal
p3692
aVitaliana
p3693
aVregardless
p3694
aVextra
p3695
aVcolbert
p3696
aVmarked
p3697
aVuphill
p3698
aVsnowboard
p3699
aVitalians
p3700
aVpony
p3701
aVmckenna
p3702
aVrarely
p3703
aVmarket
p3704
aVblahblahblah
p3705
aVangeli
p3706
aVsagittariusdigital
p3707
aVretweeted
p3708
aVangela
p3709
aVcunnilingual
p3710
aVlive
p3711
aVzapatos
p3712
aVarrgghh
p3713
aVtabetha
p3714
aVangels
p3715
aVdickthrust
p3716
aVyummitime
p3717
aVclub
p3718
aVjai
p3719
aVenda
p3720
aVempowerment
p3721
aVclue
p3722
aVcaffeinated
p3723
aVdouche
p3724
aVniggas
p3725
aVcar
p3726
aVcap
p3727
aVericcsson
p3728
aVcat
p3729
aVflaking
p3730
aVhardest
p3731
aVhope
p3732
aVcam
p3733
aVkeynes
p3734
aVcad
p3735
aVheart
p3736
aVdedicated
p3737
aVbubble
p3738
aVdecember
p3739
aVnemo
p3740
aVchiv
p3741
aVfreemusic
p3742
aVtopic
p3743
aVheard
p3744
aVfortunes
p3745
aVchil
p3746
aVthjis
p3747
aVspa
p3748
aVclothing
p3749
aVoccur
p3750
aVproductive
p3751
aVfortunately
p3752
aVdiscussion
p3753
aVbonds
p3754
aVfreezer
p3755
aVwrite
p3756
aVwonderfull
p3757
aVbulire
p3758
aVinternetness
p3759
aVbirdsong
p3760
aVproduct
p3761
aVsacrifice
p3762
aVaol
p3763
aVsouthern
p3764
aVareaa
p3765
aVbaww
p3766
aVyeaahh
p3767
aVheroes
p3768
aVnomination
p3769
aVlifting
p3770
aVvomited
p3771
aVcorrine
p3772
aVremember
p3773
aVhiggs
p3774
aVkatay
p3775
aVbenny
p3776
aVcorona
p3777
aVtruley
p3778
aVflashdrive
p3779
aVnosee
p3780
aVchurrasco
p3781
aVabbs
p3782
aVserving
p3783
aVparamore
p3784
aVindeed
p3785
aVhaircut
p3786
aVdisplayed
p3787
aVrottning
p3788
aVbrain
p3789
aVrhyming
p3790
aVtablets
p3791
aVunsuspendhisgoldeneyes
p3792
aVcold
p3793
aVtherealjaymills
p3794
aVconneticut
p3795
aVbirds
p3796
aVtrifle
p3797
aVerrm
p3798
aVcurly
p3799
aVbirthdays
p3800
aVvicinity
p3801
aVwindow
p3802
aVipswich
p3803
aVshowered
p3804
aVnorway
p3805
aVnom
p3806
aVnoo
p3807
aVperdi
p3808
aVrake
p3809
aVnob
p3810
aVhala
p3811
aVperdy
p3812
aVpauliee
p3813
aVhalf
p3814
aVcharring
p3815
aVmocha
p3816
aVhall
p3817
aVhalo
p3818
aVwont
p3819
aVrelleno
p3820
aVlies
p3821
aVyeesaahh
p3822
aVjames
p3823
aVdrop
p3824
aVquaterfinals
p3825
aVconfrence
p3826
aVentirely
p3827
aVem
p3828
aVel
p3829
aVdomain
p3830
aVen
p3831
aVyeaa
p3832
aVeh
p3833
aVee
p3834
aVed
p3835
aVsugars
p3836
aVdirecting
p3837
aVyeah
p3838
aVeb
p3839
aVgoose
p3840
aVwrap
p3841
aVfires
p3842
aVsandwich
p3843
aVey
p3844
aVex
p3845
aVeu
p3846
aVet
p3847
aVhappen
p3848
aVcalling
p3849
aVshoots
p3850
aVamusement
p3851
aVer
p3852
aValbum
p3853
aVshown
p3854
aVaccomplish
p3855
aVshadowing
p3856
aVspace
p3857
aVirony
p3858
aVth121
p3859
aVaayup
p3860
aVtingly
p3861
aVlooking
p3862
aVopener
p3863
aVfargo
p3864
aVcomptuer
p3865
aVtwittedfon
p3866
aVreceiving
p3867
aVargy
p3868
aVenroute
p3869
aVcars
p3870
aVaccomp
p3871
aVcart
p3872
aVargh
p3873
aVcari
p3874
aVunwanted
p3875
aVcarl
p3876
aVeugh
p3877
aVmarine
p3878
aVinevitable
p3879
aVcard
p3880
aVcare
p3881
aVidiocy
p3882
aVcoulda
p3883
aVtransition
p3884
aVfb
p3885
aVbritish
p3886
aVhonest
p3887
aVlindsey
p3888
aVkami
p3889
aVpromotion
p3890
aVblind
p3891
aVearache
p3892
aVflying
p3893
aVxo
p3894
aVstevens
p3895
aVbeesh
p3896
aVxc
p3897
aVmirandas
p3898
aVmyday
p3899
aVxd
p3900
aVyourself
p3901
aVxx
p3902
aVrcncongress
p3903
aVdirectly
p3904
aVsuppliments
p3905
aVimpossible
p3906
aVxp
p3907
aVforwarding
p3908
aVtomorrow
p3909
aVxt
p3910
aVsize
p3911
aVsheep
p3912
aVchecked
p3913
aVsilent
p3914
aVdawny
p3915
aVcaught
p3916
aVbreed
p3917
aVweekdays
p3918
aVremotely
p3919
aVcarson
p3920
aVtragic
p3921
aVyip
p3922
aVjuga
p3923
aVdespises
p3924
aVfriend
p3925
aVthas
p3926
aVscalper
p3927
aVsexxay
p3928
aVthaw
p3929
aVbrains
p3930
aVcornwall
p3931
aVgastroenteritis
p3932
aVtehran
p3933
aVthai
p3934
aVflowers
p3935
aVnorcal
p3936
aVbecuz
p3937
aVdeephouse
p3938
aVthumbnails
p3939
aVoptimism
p3940
aVdissed
p3941
aVgobs
p3942
aVvocals
p3943
aVapples
p3944
aVgtin
p3945
aVbrowser
p3946
aVbwahahahaha
p3947
aVangel
p3948
aVcraig
p3949
aVuntold
p3950
aVovernight
p3951
aVidlis
p3952
aVslam
p3953
aVslag
p3954
aVbreakfast
p3955
aVrecover
p3956
aVlumpy
p3957
aVprobly
p3958
aVform
p3959
aVequipment
p3960
aVnalang
p3961
aVonline
p3962
aVobjective
p3963
aVclandestinee
p3964
aVbitching
p3965
aVbegin
p3966
aVpaypal
p3967
aVokoro
p3968
aVtakeaways
p3969
aVprice
p3970
aVnumero
p3971
aVclusterfuck
p3972
aVamerica
p3973
aVmichelle
p3974
aVforever
p3975
aVpilipino
p3976
aVsprinting
p3977
aVmarinara
p3978
aVegg
p3979
aVtooth
p3980
aVferrari
p3981
aVbrarti
p3982
aVclearing
p3983
aVmre
p3984
aVtypically
p3985
aVfiling
p3986
aValabang
p3987
aVrambling
p3988
aVgerman
p3989
aVrecieve
p3990
aVspyware
p3991
aVdiscovered
p3992
aVhummngbird
p3993
aVocarina
p3994
aVmaine
p3995
aVgeography
p3996
aVaint
p3997
aVpivots
p3998
aVupgrade
p3999
aVtitle
p4000
aVnicolette
p4001
aVhonors
p4002
aVgebrochen
p4003
aVsierra
p4004
aVstain
p4005
aVpumpkin
p4006
aVchantal
p4007
aVtruly
p4008
aVnemu
p4009
aVcelebrate
p4010
aVvienee
p4011
aVlogan
p4012
aVoverworked
p4013
aVamanda
p4014
aVlayin
p4015
aVhusband
p4016
aVconcert
p4017
aVburst
p4018
aVsleeves
p4019
aVeehh
p4020
aVelected
p4021
aVasleep
p4022
aVuva
p4023
aVsport
p4024
aVoldschool
p4025
aVkeele
p4026
aVcolgate
p4027
aVisraeli
p4028
aVcrawfish
p4029
aVglaze
p4030
aVthurs
p4031
aVcolours
p4032
aVmandarin
p4033
aVimport
p4034
aVcesair
p4035
aVwhipped
p4036
aVvdos
p4037
aVnotice
p4038
aVantics
p4039
aVpontificate
p4040
aVyumm
p4041
aVblame
p4042
aVinapropriate
p4043
aVarmenian
p4044
aVhurts
p4045
aVarticle
p4046
aVimpromptu
p4047
aVskitamo
p4048
aVinstallation
p4049
aVtalented
p4050
aVmona
p4051
aVcomee
p4052
aVswims
p4053
aVenabling
p4054
aVmisspelled
p4055
aVreluctantly
p4056
aVcomet
p4057
aVwheels
p4058
aVlemon
p4059
aVcomes
p4060
aVfinnished
p4061
aVmadness
p4062
aVencantariaa
p4063
aVjeans
p4064
aVlooms
p4065
aVlearning
p4066
aVcycling
p4067
aVcares
p4068
aVoptional
p4069
aVinformed
p4070
aVterritorial
p4071
aVtropical
p4072
aVgutom
p4073
aVpunished
p4074
aVspices
p4075
aVtechnical
p4076
aVsesh
p4077
aVarggh
p4078
aVmeting
p4079
aVodessa
p4080
aVyayayayayay
p4081
aVforcast
p4082
aVachso
p4083
aVmat9ollich
p4084
aVbathrobe
p4085
aVarundel
p4086
aVexternal
p4087
aVdrum
p4088
aVruby
p4089
aVbout
p4090
aVfangirly
p4091
aVdeveloping
p4092
aVdefinition
p4093
aVtrick
p4094
aVgoto
p4095
aVscum
p4096
aVrahma
p4097
aVdrinkss
p4098
aVbomgar
p4099
aVcigs
p4100
aVbaccalaureate
p4101
aValcoholic
p4102
aVcommander
p4103
aVcanceled
p4104
aVentertian
p4105
aVanthrax
p4106
aVheels
p4107
aVbeaver
p4108
aVaerodrone
p4109
aVawhile
p4110
aVworry
p4111
aVsmiting
p4112
aVmedia
p4113
aVfood
p4114
aVpoetic
p4115
aVfollowers
p4116
aVcoworkers
p4117
aVlite
p4118
aVbarcamp
p4119
aVnoble
p4120
aVfinish
p4121
aVclosest
p4122
aVenjoyment
p4123
aVreunions
p4124
aValrighty
p4125
aVfruit
p4126
aVwoulda
p4127
aVfavorites
p4128
aVbrigthon
p4129
aVpassing
p4130
aVcomplained
p4131
aVtheater
p4132
aVtraps
p4133
aVlovercall
p4134
aVcharges
p4135
aVcharger
p4136
aVroganjosh
p4137
aVnces
p4138
aVsevere
p4139
aVbreeze
p4140
aVgain
p4141
aVheaps
p4142
aVvent
p4143
aVaunty
p4144
aVdancers
p4145
aVneon
p4146
aVrelevant
p4147
aVstorming
p4148
aVnicer
p4149
aVtouch
p4150
aVps3
p4151
aVeisneraward
p4152
aVdeath
p4153
aVeuros
p4154
aVthinking
p4155
aVgmom
p4156
aViphones
p4157
aVjoshh
p4158
aVtreatment
p4159
aVcomplements
p4160
aVgrabbity
p4161
aVstruck
p4162
aVinstructions
p4163
aVmomentum
p4164
aVreal
p4165
aVpropped
p4166
aVamm
p4167
aVduhh
p4168
aVstunk
p4169
aVread
p4170
aVcayman
p4171
aVstung
p4172
aVsplenda
p4173
aVmanohara
p4174
aVgonna
p4175
aVamy
p4176
aVcertains
p4177
aVbartlesville
p4178
aVlads
p4179
aVcoxon
p4180
aVusing
p4181
aVpsp
p4182
aVlady
p4183
aVrear
p4184
aVdevelopers
p4185
aVfortune
p4186
aVarghh
p4187
aVpostcard
p4188
aVsmell
p4189
aVcollective
p4190
aVmiracle
p4191
aVblackberry
p4192
aVwhatcha
p4193
aVsisthren
p4194
aVoverbooked
p4195
aVtwelve
p4196
aVivaa09
p4197
aVverbal
p4198
aVeddie
p4199
aVquestionnaire
p4200
aVpayed
p4201
aVpilates
p4202
aVpad
p4203
aVrecorded
p4204
aVrecorder
p4205
aVwithouth
p4206
aVassembly
p4207
aVbusiness
p4208
aVasap
p4209
aVartix
p4210
aVrestin
p4211
aVcredits
p4212
aVdiet
p4213
aVstarship
p4214
aVfractured
p4215
aVexciting
p4216
aVhandsomest
p4217
aVthrow
p4218
aVbrighton
p4219
aVdatacenter
p4220
aVchoc
p4221
aVcreaking
p4222
aVashbash
p4223
aVlonelyandroid
p4224
aVhiatus
p4225
aVchop
p4226
aVjourney
p4227
aVwolf
p4228
aVgreatly
p4229
aVsry
p4230
aVwolo
p4231
aVheater
p4232
aVoutlook
p4233
aVsmelling
p4234
aVyouc
p4235
aVtweetie
p4236
aVsnooze
p4237
aVbedtime
p4238
aVyouu
p4239
aVnowadays
p4240
aVannother
p4241
aVgrates
p4242
aVlog
p4243
aVprepare
p4244
aVzucchero
p4245
aVqualifying
p4246
aVnicloas
p4247
aVlon
p4248
aVlol
p4249
aVstart
p4250
aVcats
p4251
aVlov
p4252
aVlow
p4253
aVlot
p4254
aVcolder
p4255
aVvalencia
p4256
aVharpersisland
p4257
aVnapster
p4258
aVallergic
p4259
aVdelayed
p4260
aVphilosophers
p4261
aVthaught
p4262
aVomelet
p4263
aVupbeat
p4264
aVtrying
p4265
aVhire
p4266
aVfraud
p4267
aVillustrator
p4268
aVdefault
p4269
aVbucket
p4270
aVcordura
p4271
aVtellin
p4272
aVsadness
p4273
aVmiguel
p4274
aVgibberish
p4275
aVbuilders
p4276
aVbeliefs
p4277
aVbagolamentofotosculture
p4278
aVbamboozled
p4279
aVmoved
p4280
aVsales
p4281
aVaftershocks
p4282
aVorganised
p4283
aVnerc
p4284
aVmoves
p4285
aVnerd
p4286
aVbollox
p4287
aVbbycks
p4288
aVadwords
p4289
aVringtone
p4290
aVsyempre
p4291
aVvalid
p4292
aVfuncakes
p4293
aVmathematics
p4294
aVwoeful
p4295
aVforcing
p4296
aVpoor
p4297
aVpoop
p4298
aVtreks
p4299
aVpeas
p4300
aVwhistling
p4301
aVunattractive
p4302
aVnkotb
p4303
aVredzama
p4304
aVpelosi
p4305
aVpool
p4306
aVbuilding
p4307
aVpwns
p4308
aVvines
p4309
aVmoonlight
p4310
aVposts
p4311
aVembracing
p4312
aVsausages
p4313
aVoverseas
p4314
aVstrings
p4315
aVcruisin
p4316
aVocme
p4317
aVbetahaus
p4318
aVinterspecies
p4319
aVtomorrows
p4320
aVkeito
p4321
aVosx
p4322
aVgraphics
p4323
aVsplitting
p4324
aVmonth
p4325
aVceased
p4326
aVspiti
p4327
aVdeadline
p4328
aVmp3
p4329
aVmessy
p4330
aVreligious
p4331
aVcarpet
p4332
aVasada
p4333
aVreferring
p4334
aVdanielle
p4335
aVspain
p4336
aVbaddies
p4337
aVdoomferret
p4338
aVwma
p4339
aVslushies
p4340
aVmpg
p4341
aVjensen
p4342
aVpms
p4343
aVhorror
p4344
aVcoloured
p4345
aVminded
p4346
aVdecide
p4347
aVpressie
p4348
aVlaura
p4349
aVrandomness
p4350
aVheaven
p4351
aVfirefux
p4352
aVlouis
p4353
aVcarlenn
p4354
aVmanager
p4355
aVkelsipoodle
p4356
aVsteakhouse
p4357
aVsedation
p4358
aVmiiss
p4359
aVdunk
p4360
aVcookies
p4361
aVweeooeeooeeooeeoo
p4362
aVgayle
p4363
aVericsson
p4364
aVmila
p4365
aVcvs
p4366
aVtweetadder
p4367
aVvalue
p4368
aVfawcett
p4369
aVhamper
p4370
aVchuckle
p4371
aVbass
p4372
aVconscience
p4373
aVdrill
p4374
aVkiters
p4375
aVnana
p4376
aVhousee
p4377
aVemotions
p4378
aVretrofit
p4379
aVwitnesses
p4380
aVseazer
p4381
aVapologized
p4382
aVlearned
p4383
aVnant
p4384
aVsoundwave
p4385
aViran
p4386
aVkims
p4387
aVloose
p4388
aVanswers
p4389
aVkimi
p4390
aVtrunk
p4391
aVdefinate
p4392
aViraq
p4393
aVc10pm
p4394
aVahead
p4395
aVsamah
p4396
aVvegetarian
p4397
aVlosses
p4398
aVasa
p4399
aVcreepy
p4400
aVsoldier
p4401
aVamount
p4402
aVbase
p4403
aVarent
p4404
aVheartbroken
p4405
aVbeatle
p4406
aVkindof
p4407
aVtrainer
p4408
aVhoga
p4409
aVjra
p4410
aVsufferer
p4411
aVdonnie
p4412
aVnuffin
p4413
aVvb
p4414
aVhree
p4415
aVmaths
p4416
aVaimee
p4417
aVaimed
p4418
aVtoys
p4419
aVreverting
p4420
aVsetanta
p4421
aVcountdown
p4422
aVkhan
p4423
aVtakes
p4424
aVveg
p4425
aVshotguns
p4426
aVinjury
p4427
aVswoop
p4428
aVstorys
p4429
aVturbo
p4430
aVvk
p4431
aVyuck
p4432
aVsite
p4433
aVportman
p4434
aVexcuse
p4435
aVbroke
p4436
aVhurry
p4437
aVproducing
p4438
aVbrokn
p4439
aVweighed
p4440
aVvem
p4441
aVoffended
p4442
aVnine
p4443
aVplayable
p4444
aVparasol
p4445
aValyssa
p4446
aVhistory
p4447
aVmushrooms
p4448
aVpublicist
p4449
aVpushed
p4450
aVafta
p4451
aVpartner
p4452
aVphrase
p4453
aVbffl
p4454
aVspecies
p4455
aVsits
p4456
aVjerk
p4457
aVcheering
p4458
aVledger
p4459
aVstayed
p4460
aVstassy
p4461
aVunlucky
p4462
aVmemaw
p4463
aVshorba
p4464
aVunearthly
p4465
aVidaho
p4466
aVfr
p4467
aVlauntner
p4468
aVft
p4469
aVtried
p4470
aVrude
p4471
aVfw
p4472
aVfx
p4473
aVfuukk
p4474
aVfa
p4475
aVtries
p4476
aVff
p4477
aVrudy
p4478
aVfl
p4479
aVfo
p4480
aVmorphine
p4481
aVrelocating
p4482
aVbastions
p4483
aVdocumentation
p4484
aVbugs
p4485
aVanytime
p4486
aVslacking
p4487
aVrenewing
p4488
aVmktg
p4489
aVego
p4490
aVscaring
p4491
aVbanks
p4492
aVbreads
p4493
aVdream
p4494
aVphotoshop
p4495
aVhelp
p4496
aVbcum
p4497
aVfathersday
p4498
aVannoyingly
p4499
aVsoon
p4500
aVfollowerss
p4501
aVauburn
p4502
aVbcuz
p4503
aVheld
p4504
aVwiener
p4505
aVffl
p4506
aVcommittee
p4507
aVmillenia
p4508
aVhell
p4509
aVmcdonalds
p4510
aVcigerettes
p4511
aVeros
p4512
aVrelaxin
p4513
aVthatlong
p4514
aVmegamix
p4515
aVexact
p4516
aVbotched
p4517
aVsolving
p4518
aVactually
p4519
aVabsence
p4520
aVsystems
p4521
aVcharlottesville
p4522
aVrabble
p4523
aVtoowong
p4524
aVcutie
p4525
aVgoodmorning
p4526
aVfool
p4527
aVevening
p4528
aVym
p4529
aVpauli
p4530
aVyo
p4531
aVya
p4532
aVye
p4533
aVcupcake
p4534
aVpeeing
p4535
aVpickin
p4536
aVstarbucks
p4537
aVcommodore
p4538
aVfoot
p4539
aVninja
p4540
aVyr
p4541
aVyu
p4542
aVyt
p4543
aVdesperately
p4544
aVthehills
p4545
aVsundays
p4546
aVbless
p4547
aVstopped
p4548
aVcleaners
p4549
aVboonopolis
p4550
aVfairy
p4551
aVtrailer
p4552
aVheavy
p4553
aVneil
p4554
aVsoapy
p4555
aVtodd
p4556
aVgoodnite
p4557
aVbeyond
p4558
aVwackk
p4559
aVevent
p4560
aVqc3s
p4561
aVsignin
p4562
aVvertigo
p4563
aVemotionally
p4564
aVrobert
p4565
aVabhi
p4566
aVjolly
p4567
aVwolverine
p4568
aVequate
p4569
aVfountain
p4570
aVissue
p4571
aVass
p4572
aVpun
p4573
aVdrink
p4574
aVduno
p4575
aVteal
p4576
aVdirt
p4577
aVpug
p4578
aVpub
p4579
aVasb
p4580
aVreason
p4581
aVyonge
p4582
aVbumbumbumeer
p4583
aVget2gether
p4584
aVdire
p4585
aVdirk
p4586
aVbash
p4587
aVlaunch
p4588
aVdrupal
p4589
aVterrible
p4590
aVterribly
p4591
aVamerican
p4592
aVexpecting
p4593
aVdaisy
p4594
aVscheduled
p4595
aVaf447
p4596
aVmiso
p4597
aVsubconscience
p4598
aVdrooling
p4599
aVtakers
p4600
aVarsenal
p4601
aVfucked
p4602
aVunexpected
p4603
aVdominating
p4604
aVmiss
p4605
aVmaple
p4606
aVmlib09
p4607
aVhonorvets
p4608
aVhorse
p4609
aVafghan
p4610
aVdeanna
p4611
aVairborne
p4612
aVwonderful
p4613
aVhandshakes
p4614
aVhundred
p4615
aVjarvis
p4616
aVrawr
p4617
aVselling
p4618
aVpassed
p4619
aVtrapped
p4620
aVsateen
p4621
aVjamie
p4622
aVlovedd
p4623
aVayia
p4624
aVuncles
p4625
aVjordan
p4626
aVboredom
p4627
aVemmas
p4628
aVnco
p4629
aValbums
p4630
aVapprentice
p4631
aVgrocery
p4632
aVgrew
p4633
aVkindly
p4634
aVexpensivee
p4635
aVsth
p4636
aVgrey
p4637
aVbanana
p4638
aVgreg
p4639
aVstore
p4640
aVazithromycin
p4641
aVgps
p4642
aVsty
p4643
aVprocedural
p4644
aVcharlotte
p4645
aVovercast
p4646
aVkart
p4647
aVwasnt
p4648
aVseth
p4649
aVrandomly
p4650
aVjuice
p4651
aVphilly
p4652
aVkolektor
p4653
aVlie
p4654
aVtyvm
p4655
aVlia
p4656
aVlib
p4657
aVdouchie
p4658
aVcave
p4659
aVscotland
p4660
aVfarkk
p4661
aVlip
p4662
aVuseless
p4663
aVshowcases
p4664
aVcarroll
p4665
aVcavs
p4666
aVliz
p4667
aVtowards
p4668
aVhires
p4669
aVmurrayfield
p4670
aVquote
p4671
aVeater
p4672
aVinterpol
p4673
aVkan
p4674
aVfreddie
p4675
aVanniversary
p4676
aVhired
p4677
aVeaten
p4678
aVkat
p4679
aValpha
p4680
aVkay
p4681
aVapproved
p4682
aVwats
p4683
aVraving
p4684
aVmobile
p4685
aVenuf
p4686
aVblondie
p4687
aVoverdrive
p4688
aVclean
p4689
aVnakakatuwa
p4690
aVusual
p4691
aVphysics
p4692
aVshoutout
p4693
aVstalked
p4694
aVhyper
p4695
aVhumid
p4696
aVknwo
p4697
aVrunescape
p4698
aVcheerin
p4699
aVbooze
p4700
aVweho
p4701
aVstalker
p4702
aVtranslation
p4703
aVnorthern
p4704
aVparanoid
p4705
aVkryptonite
p4706
aVfailwhale
p4707
aVpretty
p4708
aVcircle
p4709
aVsandhills
p4710
aVjuke
p4711
aVlegible
p4712
aVking
p4713
aVtrees
p4714
aVfeeln
p4715
aVchars
p4716
aVfamous
p4717
aVfeels
p4718
aVbasement
p4719
aVhomeworks
p4720
aVcatcher
p4721
aVtmobile
p4722
aVfrickin
p4723
aVdiamond
p4724
aVperfume
p4725
aVheree
p4726
aVrecommendations
p4727
aVhype
p4728
aVwitht
p4729
aVcramp
p4730
aVthrowing
p4731
aVprague
p4732
aVplough
p4733
aVculture
p4734
aVsidetracked
p4735
aVdemitria
p4736
aVprosper
p4737
aVsadfacee
p4738
aVclose
p4739
aVgouda
p4740
aVpoped
p4741
aVpish
p4742
aVpatties
p4743
aVhorrid
p4744
aVpictures
p4745
aVwow
p4746
aVwoo
p4747
aVwon
p4748
aVwoi
p4749
aVwoe
p4750
aVprobably
p4751
aVwoa
p4752
aVgoodluckt
p4753
aVpiss
p4754
aVboyscout
p4755
aVmissing
p4756
aVnightastic
p4757
aVdrapeau
p4758
aVdhcp4whs
p4759
aVfenced
p4760
aVspray
p4761
aVeffed
p4762
aVinvisible
p4763
aVzipper
p4764
aVabruptly
p4765
aVleague
p4766
aVmccafe
p4767
aVsecrets
p4768
aVminorities
p4769
aVtranent
p4770
aVforgotten
p4771
aVbots
p4772
aVexperimental
p4773
aVliked
p4774
aVlikee
p4775
aVheaded
p4776
aVbattery
p4777
aVwhatever
p4778
aVprettiful
p4779
aVskips
p4780
aVbadminton
p4781
aVspotting
p4782
aVlikes
p4783
aVsowwyy
p4784
aVdescribed
p4785
aVwo0o0ow
p4786
aVstamp
p4787
aVlahat
p4788
aVenuff
p4789
aVnape
p4790
aVdescribes
p4791
aVdamn
p4792
aVmaintenance
p4793
aVdamm
p4794
aVempty
p4795
aVgenerating
p4796
aVlived
p4797
aVpartly
p4798
aVpacks
p4799
aVwet
p4800
aVimac
p4801
aVelse
p4802
aVanthony
p4803
aVlives
p4804
aVbidding
p4805
aVmarylou
p4806
aVdpreview
p4807
aVlool
p4808
aViya
p4809
aVlook
p4810
aVhotties
p4811
aVravelry
p4812
aVpace
p4813
aVwhild
p4814
aVaccidently
p4815
aVmatch
p4816
aVloot
p4817
aVbiking
p4818
aVguide
p4819
aVloop
p4820
aVpack
p4821
aVhelloo
p4822
aVsmacked
p4823
aVcurtis
p4824
aVgall
p4825
aVgoingg
p4826
aVterminator
p4827
aVskype
p4828
aVready
p4829
aVfannie
p4830
aVnvr
p4831
aVgrans
p4832
aValbany
p4833
aVshat
p4834
aVabcfamily
p4835
aVbelong
p4836
aVgrand
p4837
aVestes
p4838
aVindianapolis
p4839
aVreceptions
p4840
aVfatty
p4841
aVdime
p4842
aVbonus
p4843
aVsleeptight
p4844
aVstashed
p4845
aVcleaning
p4846
aVrochester
p4847
aVflips
p4848
aVretracted
p4849
aVflirty
p4850
aVmobo
p4851
aVdatabase
p4852
aVcollesium
p4853
aVpoland
p4854
aVsmedia
p4855
aVcruz
p4856
aVobviously
p4857
aVlil
p4858
aVmassage
p4859
aVgrins
p4860
aVwedges
p4861
aVgrossly
p4862
aVgrint
p4863
aVoverhead
p4864
aVateneo
p4865
aVgoings
p4866
aVspunked
p4867
aVroasted
p4868
aVpraying
p4869
aVsidagi
p4870
aVjunos
p4871
aVnikki
p4872
aVexercising
p4873
aVpcis
p4874
aVhavin
p4875
aVarmin
p4876
aVschoolwork
p4877
aVremaining
p4878
aVmarch
p4879
aVlacking
p4880
aVreptilian
p4881
aVtiring
p4882
aVresting
p4883
aVruff
p4884
aVgame
p4885
aVwiser
p4886
aVemma
p4887
aVwings
p4888
aVpunishments
p4889
aVcontractual
p4890
aVmhh
p4891
aVips
p4892
aVsignal
p4893
aVtoyota
p4894
aVeer
p4895
aVeen
p4896
aVmacbooks
p4897
aVsofa
p4898
aVpopular
p4899
aVmathematical
p4900
aVsketch
p4901
aVsaturdays
p4902
aVermm
p4903
aVdrove
p4904
aVfathers
p4905
aVsteamin
p4906
aVmetres
p4907
aVurgent
p4908
aVlips
p4909
aVjuergens
p4910
aVtrendy
p4911
aVmacs
p4912
aVmustang
p4913
aVjournalisum
p4914
aVsheen
p4915
aVdebra
p4916
aVvacationed
p4917
aVprovidence
p4918
aVroommate
p4919
aVslash
p4920
aVadicted
p4921
aVrun
p4922
aVhrm
p4923
aVrub
p4924
aVprocessing
p4925
aVlaker
p4926
aVusmnt
p4927
aVstep
p4928
aVacho
p4929
aVlasts
p4930
aVache
p4931
aVtaboo
p4932
aVlakee
p4933
aVwvs
p4934
aVshine
p4935
aVfaith
p4936
aVwouldnt
p4937
aVbetfair
p4938
aVstelicoom
p4939
aVbking
p4940
aVseussical
p4941
aVido
p4942
aVbgt
p4943
aVidk
p4944
aVidf
p4945
aVitalian
p4946
aVshiny
p4947
aVsilence
p4948
aVseeing
p4949
aVpw2
p4950
aVdude
p4951
aVtofu
p4952
aVnonsense
p4953
aVsmelly
p4954
aVneko
p4955
aVtada
p4956
aVrolls
p4957
aValison
p4958
aVpff
p4959
aVinfuriating
p4960
aVammassed
p4961
aVgbank
p4962
aVeone
p4963
aVeventhough
p4964
aVheritage
p4965
aVeons
p4966
aVopposed
p4967
aVregistered
p4968
aVspecialty
p4969
aVproperly
p4970
aVreed
p4971
aVhail
p4972
aVfishy
p4973
aVrussian
p4974
aVinjection
p4975
aVdull
p4976
aVmerienda
p4977
aVinfo
p4978
aVthru
p4979
aVchelsey
p4980
aVintuitive
p4981
aVscumptious
p4982
aVahha
p4983
aVwicked
p4984
aVsimilar
p4985
aVlovers
p4986
aVuber
p4987
aVchafed
p4988
aVhaiz
p4989
aVoptouts
p4990
aVrupert
p4991
aVpsychopath
p4992
aVkidney
p4993
aVtite
p4994
aVnaa
p4995
aVbrunching
p4996
aVinsomniac
p4997
aVamounts
p4998
aVnak
p4999
aVnah
p5000
aVnan
p5001
aVbtww
p5002
aVwesabi
p5003
aVnap
p5004
aVnav
p5005
aVnaw
p5006
aVnat
p5007
aVgrind
p5008
aVforge
p5009
aVttown
p5010
aVarithmetic
p5011
aVsmiles
p5012
aVdraw
p5013
aVgf
p5014
aVstudyin
p5015
aVkansas
p5016
aVvisits
p5017
aVmalay
p5018
aVwilliam
p5019
aVdrag
p5020
aVevan
p5021
aVsmiled
p5022
aVcongrads
p5023
aVformal
p5024
aVstructure
p5025
aVpractically
p5026
aVdvd
p5027
aVouting
p5028
aVresolving
p5029
aVheath
p5030
aVbandung
p5031
aVmocca
p5032
aVdvr
p5033
aVgw
p5034
aVkaty
p5035
aVgt
p5036
aVgr
p5037
aVgq
p5038
aVgiggles
p5039
aVtweeter
p5040
aVkath
p5041
aVmoree
p5042
aVgb
p5043
aVgn
p5044
aVchrisette
p5045
aVtweeted
p5046
aVgk
p5047
aVkate
p5048
aVgi
p5049
aVcda
p5050
aVlicencia
p5051
aVtehj
p5052
aVwizard
p5053
aVbreakout
p5054
aVwarpath
p5055
aVbehalf
p5056
aVisplayer
p5057
aVsuite
p5058
aVfriendly
p5059
aVsilverstone
p5060
aVnichole
p5061
aVukulele
p5062
aVhaahah
p5063
aVhappend
p5064
aVkitty
p5065
aVwave
p5066
aVsuxkxx
p5067
aVmaan
p5068
aVfacebook
p5069
aVtelling
p5070
aVyourselves
p5071
aVja
p5072
aVexcruciating
p5073
aVstiff
p5074
aVasparagus
p5075
aVchains
p5076
aVbutton
p5077
aVmichael
p5078
aVwatered
p5079
aVhive
p5080
aVflp
p5081
aVinspection
p5082
aVlumberjack
p5083
aVpepper
p5084
aVboots
p5085
aVwaking
p5086
aVjump
p5087
aVtitanic
p5088
aVbooth
p5089
aVpicked
p5090
aVdownload
p5091
aVtwitters
p5092
aVclick
p5093
aVpoleg
p5094
aVsausage
p5095
aVcupcakes
p5096
aVplays
p5097
aVwallet
p5098
aVespresso
p5099
aVvampire
p5100
aVcell
p5101
aVrotten
p5102
aVnicholas
p5103
aVhuggies
p5104
aVshutting
p5105
aVcommercial
p5106
aVeminem
p5107
aVgladstone
p5108
aVconceited
p5109
aVpancake
p5110
aVbabysittin
p5111
aVvacay
p5112
aVconvert
p5113
aVrosary
p5114
aVchant
p5115
aVnitey
p5116
aVvbs
p5117
aVjustice
p5118
aVexpire
p5119
aVgeni
p5120
aVsalvation
p5121
aVsugahh
p5122
aVwif
p5123
aVpurevolume
p5124
aVwid
p5125
aVjoost
p5126
aVdanger
p5127
aVclare
p5128
aVwin
p5129
aVmanage
p5130
aVwii
p5131
aVwit
p5132
aVsinging
p5133
aVcloud
p5134
aVasthma
p5135
aVpenalty
p5136
aVcrap
p5137
aVschumi
p5138
aVaswered
p5139
aVthome
p5140
aVflights
p5141
aVgrrl
p5142
aVcamera
p5143
aVcoldplay
p5144
aVcheeky
p5145
aVcram
p5146
aVhiding
p5147
aVhistorically
p5148
aVmilliseconds
p5149
aVcheeks
p5150
aVcosmo
p5151
aVbureaucracy
p5152
aVpopped
p5153
aVshagged
p5154
aVinitial
p5155
aVbenchmark
p5156
aVconfused
p5157
aVbettah
p5158
aVclubbin
p5159
aVdisabling
p5160
aVboards
p5161
aVrotterdam
p5162
aVsalad
p5163
aVride
p5164
aVrecession
p5165
aVcrossed
p5166
aVmeet
p5167
aVdrops
p5168
aVpotus
p5169
aVcontrol
p5170
aVbeijing
p5171
aVkenny
p5172
aVspeciality
p5173
aVlinks
p5174
aVproviders
p5175
aVferrets
p5176
aVsuckcces
p5177
aVwefollow
p5178
aVhotmail
p5179
aVpulling
p5180
aVbsta
p5181
aVbowl
p5182
aVskirt
p5183
aVbdays
p5184
aValhamdulillah
p5185
aVgalleria
p5186
aVfare
p5187
aVxx13vamper37xx
p5188
aVfarm
p5189
aVpeeling
p5190
aVthunderstorm
p5191
aVfart
p5192
aVbelongings
p5193
aVspelling
p5194
aVpopaw
p5195
aVarchuleta
p5196
aVscool
p5197
aVcoffeetree
p5198
aVsangria
p5199
aVimysmbihbafybikywtw
p5200
aVrove
p5201
aVhealthcare
p5202
aVfavourites
p5203
aVsoftware
p5204
aVobelix
p5205
aVbathing
p5206
aVpaling
p5207
aVadvertorial
p5208
aVincluding
p5209
aVcostume
p5210
aVcruise
p5211
aVmentioned
p5212
aVwnci
p5213
aVcrannies
p5214
aVemails
p5215
aVfiliming
p5216
aVsupurb
p5217
aVpure
p5218
aVzagreb
p5219
aVflailing
p5220
aVnokia
p5221
aVtile
p5222
aVhannin
p5223
aVhands
p5224
aVfront
p5225
aVhandy
p5226
aVuniversity
p5227
aVpoole
p5228
aVviewty
p5229
aVdosnt
p5230
aVslide
p5231
aVovercharged
p5232
aVphilpackers
p5233
aVpools
p5234
aVcamden
p5235
aVshaking
p5236
aVseniors
p5237
aVunwind
p5238
aVtwitts
p5239
aVchung
p5240
aVglobe
p5241
aVjoyce
p5242
aVmas
p5243
aVtwitty
p5244
aVinflamation
p5245
aVcoldstone
p5246
aVsryy
p5247
aVlololololol
p5248
aVmagvote
p5249
aVlalala
p5250
aVspecial
p5251
aVbutch
p5252
aVbraxton
p5253
aVentertainment
p5254
aVconfess
p5255
aVreboot
p5256
aVmax
p5257
aVluckiestmanontwitter
p5258
aVthriving
p5259
aVsadlers
p5260
aVcause
p5261
aVblasting
p5262
aVlalou
p5263
aVumbrella
p5264
aVwines
p5265
aVeco
p5266
aVwaikiki
p5267
aVundo
p5268
aVech
p5269
aVswitzerland
p5270
aVcompletely
p5271
aVceltics
p5272
aVyodeling
p5273
aVplayoffs
p5274
aVnagloload
p5275
aVhostile
p5276
aVsaberi
p5277
aVlone
p5278
aVroute
p5279
aVhollywood
p5280
aVflorida
p5281
aVmembership
p5282
aVtimes
p5283
aVkeen
p5284
aVresumes
p5285
aVmargaritas
p5286
aVaustin
p5287
aVguyz
p5288
aVblogger
p5289
aVpowerful
p5290
aVbootcamp
p5291
aVneill
p5292
aVbitch
p5293
aVmusicianss
p5294
aVquality
p5295
aVmeclizine
p5296
aVblogged
p5297
aVplaylist
p5298
aVbears
p5299
aVfilthy
p5300
aVpavillion
p5301
aVdiein
p5302
aVgoneon
p5303
aVattack
p5304
aVfinae
p5305
aVankle
p5306
aVbeara
p5307
aVperfectly
p5308
aVfinal
p5309
aVpaved
p5310
aVtnight
p5311
aVpunish
p5312
aVexactly
p5313
aVapologise
p5314
aVeastwind
p5315
aVinnovate
p5316
aVcya
p5317
aVsurfing
p5318
aVocracoke
p5319
aVfuzzy
p5320
aVsumthin
p5321
aVupdating
p5322
aVwaist
p5323
aVcatamaran
p5324
aVben
p5325
aVbloat
p5326
aVbea
p5327
aVbeg
p5328
aVbed
p5329
aVbee
p5330
aVbey
p5331
aVbeboing
p5332
aVproviding
p5333
aVbet
p5334
aVexhibit
p5335
aVtabs
p5336
aVcarrots
p5337
aVtabu
p5338
aVtabo
p5339
aVportrait
p5340
aVcosmopolitan
p5341
aVbeefy
p5342
aVemptying
p5343
aVscrew
p5344
aVeyeshadow
p5345
aVsprinkles
p5346
aVable
p5347
aVdawys
p5348
aVinstance
p5349
aVrelatives
p5350
aVsinga
p5351
aVresyncing
p5352
aVbrand
p5353
aVblades
p5354
aVmileage
p5355
aVwaayy
p5356
aVaww
p5357
aVsewing
p5358
aVcamper
p5359
aVthts
p5360
aVdownsized
p5361
aVhiphop
p5362
aVmontana
p5363
aVconnected
p5364
aVawh
p5365
aVcosplay
p5366
aVawe
p5367
aVexpired
p5368
aVwolves
p5369
aVcellphone
p5370
aVplumber
p5371
aVurg
p5372
aVwanthz
p5373
aVinsured
p5374
aVurl
p5375
aVsg
p5376
aVeachother
p5377
aVsnickering
p5378
aVupset
p5379
aVmizsmith
p5380
aVheehee
p5381
aVurs
p5382
aVbun
p5383
aVindo
p5384
aVkiddin
p5385
aVtolkien
p5386
aVviolation
p5387
aVtelepathically
p5388
aVanyway
p5389
aVunfathomable
p5390
aVsasama
p5391
aVwooshing
p5392
aVparked
p5393
aVsoldiers
p5394
aVshield
p5395
aVenvy
p5396
aVbased
p5397
aVnga
p5398
aVtire
p5399
aVtird
p5400
aVngl
p5401
aVwinner
p5402
aVhopeful
p5403
aVwreak
p5404
aVrash
p5405
aVlibra
p5406
aVethan
p5407
aVfuel
p5408
aVaretha
p5409
aVdodge
p5410
aVpeolple
p5411
aVopinions
p5412
aVtbs
p5413
aVjammy
p5414
aVyaayyayyayy
p5415
aVsipping
p5416
aVtbh
p5417
aVlegitimate
p5418
aVwerent
p5419
aVbuyer
p5420
aVtbc
p5421
aVkong
p5422
aVdodgy
p5423
aVborin
p5424
aVendless
p5425
aVgray
p5426
aVevolution
p5427
aVfarrah
p5428
aVslimey
p5429
aVughh
p5430
aVtuned
p5431
aVprocessed
p5432
aVgran
p5433
aVwish
p5434
aVtunes
p5435
aVgrab
p5436
aVgrad
p5437
aVsho
p5438
aVnuttin
p5439
aVjagercon
p5440
aVprayers
p5441
aVsmooth
p5442
aVpitch
p5443
aVhumans
p5444
aVtyphoons
p5445
aVfreeze
p5446
aVkorea
p5447
aVdriveway
p5448
aVdesperate
p5449
aVhumane
p5450
aVstats
p5451
aVluv
p5452
aVjoys
p5453
aVnightmare
p5454
aVhorribly
p5455
aVufjfldl
p5456
aVtend
p5457
aVtyra
p5458
aVsupernatural
p5459
aVcorrectly
p5460
aVgulardi
p5461
aVneither
p5462
aVluk
p5463
aVoutsiders
p5464
aVtent
p5465
aVken
p5466
aVkks
p5467
aVluke
p5468
aVerotica
p5469
aVbuckets
p5470
aVgoosshh
p5471
aVavid
p5472
aVkicking
p5473
aVkez
p5474
aVmerry
p5475
aVcrackberry
p5476
aVprecious
p5477
aVmythbusters
p5478
aVmcconaughey
p5479
aVmonitor
p5480
aVhits
p5481
aVmindy
p5482
aVsniff
p5483
aVcareer
p5484
aVripleys
p5485
aVpresentations
p5486
aVadmit
p5487
aVhite
p5488
aVmindd
p5489
aVfearnie
p5490
aVjersey
p5491
aVnightbus
p5492
aVrebekah
p5493
aVafaik
p5494
aVtuesday
p5495
aVgitu
p5496
aVmaximize
p5497
aVcynicism
p5498
aVerased
p5499
aVquit
p5500
aVyay
p5501
aVserously
p5502
aVdiscrimination
p5503
aVwills
p5504
aVsara
p5505
aVyas
p5506
aVquiz
p5507
aVimmense
p5508
aVyao
p5509
aVyan
p5510
aVslowly
p5511
aVtreat
p5512
aVyaa
p5513
aVoth
p5514
aVshoulders
p5515
aVpic
p5516
aVdiversity
p5517
aVghostride
p5518
aVtopless
p5519
aVbulaga
p5520
aVdurring
p5521
aVviktorio
p5522
aVours
p5523
aVreking
p5524
aVsmoking
p5525
aVbrunch
p5526
aVcuts
p5527
aVgarmin
p5528
aVotw
p5529
aVnovel
p5530
aVxoxoxo
p5531
aVharder
p5532
aVsalman
p5533
aVharden
p5534
aVgucci
p5535
aVowns
p5536
aVdontcha
p5537
aViremember
p5538
aVdemn
p5539
aVdemo
p5540
aVink
p5541
aVstanly
p5542
aVdemi
p5543
aVsimone
p5544
aVlambs
p5545
aVballoon
p5546
aVcoraline
p5547
aVupside
p5548
aVstrange
p5549
aVfido
p5550
aVunderground
p5551
aVparty
p5552
aVchanty
p5553
aVcontext
p5554
aVefal
p5555
aVabsorb
p5556
aVdex
p5557
aVbuzz
p5558
aVeffect
p5559
aVwhereisjoeymcintyre
p5560
aVhuhuhu
p5561
aVsarcastic
p5562
aVdiscouraged
p5563
aVspree
p5564
aVnation
p5565
aVlough
p5566
aVenergized
p5567
aVhaveyouever
p5568
aVtransaction
p5569
aVdressed
p5570
aVphils
p5571
aVrestore
p5572
aVtaller
p5573
aVsufi
p5574
aVmistaken
p5575
aVdose
p5576
aVheadig
p5577
aVakron
p5578
aVmistakes
p5579
aVspinnerette
p5580
aVadvertised
p5581
aVheadin
p5582
aVskill
p5583
aVlauren
p5584
aVparchment
p5585
aVtenner
p5586
aVeclairs
p5587
aVahaha
p5588
aVvida
p5589
aVjeff
p5590
aVlogged
p5591
aVvids
p5592
aVresposnes
p5593
aVkick
p5594
aVdetails
p5595
aVsonic
p5596
aVlivin
p5597
aVcrushed
p5598
aVsaurdays
p5599
aVimmediately
p5600
aVpennys
p5601
aVloss
p5602
aVrenegade
p5603
aVlost
p5604
aVfernando
p5605
aVclown
p5606
aVsized
p5607
aVunfolded
p5608
aVroto
p5609
aVlose
p5610
aVpage
p5611
aVshed
p5612
aVshee
p5613
aVawefull
p5614
aVtwitter
p5615
aVlibrary
p5616
aVshew
p5617
aVwarmer
p5618
aVshes
p5619
aVenthu
p5620
aVjlm
p5621
aVhome
p5622
aVliking
p5623
aVpeter
p5624
aVtwitted
p5625
aVoverlay
p5626
aVbroad
p5627
aVkettle
p5628
aVgrinding
p5629
aVflolloping
p5630
aVhawig
p5631
aVwendy
p5632
aVboggles
p5633
aVspymaster
p5634
aVshoppin
p5635
aVsediihh
p5636
aVdui
p5637
aVjournal
p5638
aVexpansion
p5639
aVoutlets
p5640
aVglasto
p5641
aVvariation
p5642
aVcomtemplating
p5643
aVdun
p5644
aVfreedom
p5645
aVcompatible
p5646
aVmofo
p5647
aVpuppies
p5648
aVtongue
p5649
aVsumtyms
p5650
aVvulgarity
p5651
aVwashington
p5652
aVchula
p5653
aVcalallen
p5654
aVultrasound
p5655
aVsquare
p5656
aVgloriously
p5657
aVomigood
p5658
aVcouldnt
p5659
aVilyilyilyxx
p5660
aVpointless
p5661
aVxxl2
p5662
aVnetworking
p5663
aVmiscount
p5664
aVwhom
p5665
aVmuseum
p5666
aVmeatlessmonday
p5667
aVnoticed
p5668
aVinner
p5669
aVnotices
p5670
aVswer
p5671
aVgoin
p5672
aVphilips
p5673
aVcricket
p5674
aVrevised
p5675
aVnorth
p5676
aVkeed
p5677
aVhr
p5678
aVhs
p5679
aVwhoopsie
p5680
aVhq
p5681
aVhv
p5682
aVhw
p5683
aVetnies
p5684
aVgaain
p5685
aVneutral
p5686
aVhi
p5687
aVgoals
p5688
aVhm
p5689
aVhb
p5690
aVsprinkling
p5691
aVear
p5692
aVeau
p5693
aVeat
p5694
aVhd
p5695
aVath1eofficially
p5696
aVbaises
p5697
aVcells
p5698
aVhosting
p5699
aVsigned
p5700
aVwhoa
p5701
aVcruel
p5702
aVlimit
p5703
aVdmv
p5704
aVpumped
p5705
aVpiece
p5706
aVdisplay
p5707
aVmarketplace
p5708
aVuniversal
p5709
aVpenny
p5710
aVkisses
p5711
aVupsets
p5712
aVyeaah
p5713
aVerin
p5714
aVbeats
p5715
aVconan
p5716
aVeric
p5717
aVarrg
p5718
aVpucks
p5719
aVrumors
p5720
aVcontest
p5721
aVstarbuck
p5722
aVkail
p5723
aVsafetey
p5724
aVjamming
p5725
aVtalkin
p5726
aVpdx
p5727
aVmotivator
p5728
aVhahhaa
p5729
aVtreadmills
p5730
aVstar
p5731
aVtwitterworld
p5732
aVtaytay
p5733
aVstay
p5734
aVmethinks
p5735
aVbackstage
p5736
aVnintendo
p5737
aVfriends
p5738
aVhowie
p5739
aVgamers
p5740
aVbck
p5741
aVfertilize
p5742
aVblogs
p5743
aVmartin
p5744
aVbcz
p5745
aVmmorpg
p5746
aVrecalled
p5747
aVrebuilding
p5748
aVfrankfurt
p5749
aVquebec
p5750
aVtodays
p5751
aVmsgs
p5752
aVandre
p5753
aVprotest
p5754
aVsacto
p5755
aVperverted
p5756
aVaua
p5757
aVmichele
p5758
aVswag
p5759
aVspellcheck
p5760
aVbuddy
p5761
aVaug
p5762
aVemcworld
p5763
aVsweetest
p5764
aVaus
p5765
aVswap
p5766
aVteaching
p5767
aVsorry
p5768
aVbuhbye
p5769
aVloon
p5770
aVupdated
p5771
aVaparently
p5772
aVrenang
p5773
aVchelioo
p5774
aVdutch
p5775
aVglasvegas
p5776
aVsmack
p5777
aVgaslight
p5778
aVuuhg
p5779
aVbaking
p5780
aVskills
p5781
aVtweetbunchnz
p5782
aVcompanies
p5783
aVcorrect
p5784
aVboohoo
p5785
aVgsce
p5786
aVunrelated
p5787
aVmopped
p5788
aVdagens
p5789
aVgracey
p5790
aVwashout
p5791
aVheading
p5792
aVupp
p5793
aVclothes
p5794
aVbabygirl
p5795
aVwinded
p5796
aVforce
p5797
aVconcise
p5798
aVjapanese
p5799
aVpattinson
p5800
aVseeley
p5801
aVllast
p5802
aVdaikokuya
p5803
aVcolourful
p5804
aVdere
p5805
aVenthasimea
p5806
aVnel
p5807
aVnem
p5808
aVwreck
p5809
aVnee
p5810
aVorchestra
p5811
aVasia
p5812
aVprescence
p5813
aVlights
p5814
aVfugg
p5815
aVsymbols
p5816
aVtips
p5817
aVmaverick
p5818
aVcrimping
p5819
aVslumber
p5820
aVplunked
p5821
aVmed
p5822
aVyoshihiro
p5823
aVpancakes
p5824
aVorr
p5825
aVtownies
p5826
aVmeh
p5827
aVdrew
p5828
aVmeu
p5829
aVmet
p5830
aVpedro
p5831
aVnanny
p5832
aVflatley
p5833
aVcardboard
p5834
aVdry
p5835
aVbuckled
p5836
aVmitchell
p5837
aVeconomics
p5838
aVpiercing
p5839
aVignoring
p5840
aVcredit
p5841
aVfreezepop
p5842
aVcindy
p5843
aVsjc
p5844
aVsuitable
p5845
aVgrandkids
p5846
aVfantastic
p5847
aVhunch
p5848
aVcampaign
p5849
aVslices
p5850
aVgrandma
p5851
aVsliced
p5852
aVfcuking
p5853
aVmoral
p5854
aVguests
p5855
aVjackets
p5856
aVgubbed
p5857
aVchineese
p5858
aVcriminals
p5859
aVarmy
p5860
aVwatering
p5861
aVscrote
p5862
aVarms
p5863
aVcali
p5864
aVedward
p5865
aVcall
p5866
aVcalm
p5867
aVtypo
p5868
aVrecommend
p5869
aVsurvive
p5870
aVtype
p5871
aVtell
p5872
aVfdskakdj
p5873
aVkarus
p5874
aVsupporters
p5875
aVlungs
p5876
aVoscar
p5877
aVwars
p5878
aVloong
p5879
aVwarn
p5880
aVberlin
p5881
aVwarm
p5882
aVfrenzy
p5883
aVadult
p5884
aVshelters
p5885
aVeternally
p5886
aVinhabited
p5887
aVcrashd
p5888
aVcarnival
p5889
aVrights
p5890
aVsetup
p5891
aVipshit
p5892
aVroof
p5893
aVilysm
p5894
aVmovies
p5895
aVfking
p5896
aVsumthing
p5897
aVroot
p5898
aVwhitstable
p5899
aVvodka
p5900
aVlistings
p5901
aVfaveourite
p5902
aVmanis
p5903
aVgaff
p5904
aVlaughs
p5905
aVstressing
p5906
aVwrriting
p5907
aVuktop10hit
p5908
aVhoney
p5909
aVfoods
p5910
aVhomie
p5911
aVgoonies
p5912
aVsats
p5913
aVsharepoint
p5914
aVcolds
p5915
aVamazing
p5916
aVnuff
p5917
aVanswer
p5918
aVbleeah
p5919
aVaurora
p5920
aVaboard
p5921
aVloggers
p5922
aVbecky
p5923
aValegre
p5924
aVthankyou
p5925
aVova
p5926
aVpresident
p5927
aVbangla
p5928
aVkarachi
p5929
aVattempt
p5930
aVanymore
p5931
aVthird
p5932
aVrecieved
p5933
aVvfc
p5934
aVmaintain
p5935
aVgoodbye
p5936
aVfeeties
p5937
aVfamilly
p5938
aValbans
p5939
aVwut
p5940
aVdumbasabagofbolts
p5941
aVkeyboard
p5942
aVoswald
p5943
aVfellas
p5944
aVwindshield
p5945
aVdecs
p5946
aVscoring
p5947
aVseriosuly
p5948
aVchihuahua
p5949
aVdeathly
p5950
aVpharma
p5951
aVpersonal
p5952
aVsoaking
p5953
aVcrew
p5954
aVmuchh
p5955
aVunhealthy
p5956
aVweeks
p5957
aVcred
p5958
aVprius
p5959
aVcollabo
p5960
aVunemployed
p5961
aVbreadroll
p5962
aVtherapy
p5963
aVglazed
p5964
aVanit
p5965
aVadvise
p5966
aVthenn
p5967
aVmeat
p5968
aVlorena
p5969
aVdaydream
p5970
aVarrested
p5971
aVsocmed
p5972
aVluce
p5973
aVroast
p5974
aVmounts
p5975
aVacoustic
p5976
aVbluevoda
p5977
aVmeal
p5978
aVforver
p5979
aVluck
p5980
aVgunna
p5981
aVupstaged
p5982
aVsahal
p5983
aVfiddler
p5984
aVskins
p5985
aVvote
p5986
aVtaught
p5987
aVtrading
p5988
aVdissappoints
p5989
aVforgot
p5990
aVapprecaite
p5991
aVvelvet
p5992
aVkiev
p5993
aVviews
p5994
aVmandy
p5995
aVcontent
p5996
aVmanda
p5997
aVihop
p5998
aVreader
p5999
aVsurprise
p6000
aVnubian
p6001
aVhermosa
p6002
aVgrease
p6003
aVfuddruckers
p6004
aVcutest
p6005
aVresume
p6006
aVcutesy
p6007
aVfave
p6008
aVrevenge
p6009
aVtwitterbones
p6010
aVstruggle
p6011
aVhoodie
p6012
aVentrar
p6013
aVpune
p6014
aVharriet
p6015
aVcuppa
p6016
aVfogo
p6017
aVlogging
p6018
aViss
p6019
aVstarts
p6020
aVmessages
p6021
aVist
p6022
aVkitesurfers
p6023
aVish
p6024
aVsatiny
p6025
aVarrived
p6026
aVisa
p6027
aVmessaged
p6028
aVloud
p6029
aVfuckin
p6030
aVstewart
p6031
aVnaughty
p6032
aVfeatures
p6033
aVunfollowed
p6034
aVgrade
p6035
aVcomforted
p6036
aVily
p6037
aVhook
p6038
aVfloors
p6039
aVdownside
p6040
aVditch
p6041
aVpopsicles
p6042
aVhood
p6043
aVspeck
p6044
aVniight
p6045
aVgirly
p6046
aVsurement
p6047
aVconcussion
p6048
aVgirls
p6049
aVtwisted
p6050
aVboating
p6051
aVnowni
p6052
aVevrtn
p6053
aVslimtimer
p6054
aVbodys
p6055
aVtwister
p6056
aVmoisture
p6057
aVmechanism
p6058
aVbouncing
p6059
aVgym
p6060
aVtyping
p6061
aVtrippy
p6062
aVchex
p6063
aVsomewhat
p6064
aVswells
p6065
aVdigg
p6066
aVstocking
p6067
aVboarding
p6068
aVanxiety
p6069
aVanniversery
p6070
aVfairytale
p6071
aVouchies
p6072
aVpreparation
p6073
aVmatter
p6074
aVstreet
p6075
aVsilly
p6076
aVdoong
p6077
aVspoiled
p6078
aVtorchwood
p6079
aVravished
p6080
aVextracting
p6081
aVtelln
p6082
aVmini
p6083
aVanus
p6084
aVstomping
p6085
aVmind
p6086
aVmine
p6087
aVginger
p6088
aVming
p6089
aVseed
p6090
aVplzz
p6091
aVseen
p6092
aVlautner
p6093
aVmins
p6094
aVseek
p6095
aVtells
p6096
aVpanda
p6097
aVkolonopin
p6098
aVchest
p6099
aVchess
p6100
aVsmuttness
p6101
aVdavidson
p6102
aVlovehandle
p6103
aVbuggies
p6104
aVmashed
p6105
aVtranslator
p6106
aVmario
p6107
aVregular
p6108
aVwisco
p6109
aVmaria
p6110
aVzealand
p6111
aVdok
p6112
aVdon
p6113
aVdoo
p6114
aVdoc
p6115
aVconsumed
p6116
aVdog
p6117
aVdod
p6118
aVdoz
p6119
aVdefinitely
p6120
aVcopps
p6121
aVdos
p6122
aVconsumer
p6123
aVannoyed
p6124
aVdot
p6125
aVkristen
p6126
aVunironed
p6127
aVpunk
p6128
aVlyrics
p6129
aVringtones
p6130
aVhedberg
p6131
aVretire
p6132
aVsyntax
p6133
aVsowi
p6134
aVbaack
p6135
aVawaywego
p6136
aVstepping
p6137
aVprobs
p6138
aVweekends
p6139
aVacne
p6140
aVfolded
p6141
aVprotien
p6142
aVsugar
p6143
aVcastelvania
p6144
aVfriendian
p6145
aVfolks
p6146
aVgrissom
p6147
aVlightening
p6148
aVwearing
p6149
aVmonica
p6150
aVcolorful
p6151
aVpakcricket
p6152
aVwtfami
p6153
aVbeater
p6154
aVstop
p6155
aVcoast
p6156
aVmeditate
p6157
aVchristopher
p6158
aVatrodas
p6159
aVpagnakita
p6160
aVearl
p6161
aVbaw
p6162
aVearn
p6163
aVbar
p6164
aVuncapped
p6165
aVfields
p6166
aVbay
p6167
aVbag
p6168
aVbad
p6169
aVbae
p6170
aVdisney
p6171
aVban
p6172
aVbam
p6173
aVmaramail
p6174
aVeffing
p6175
aVears
p6176
aVattest
p6177
aVreference
p6178
aVunmotivated
p6179
aVfluffy
p6180
aVtesting
p6181
aVdecided
p6182
aVcatan
p6183
aVmidst
p6184
aVsubject
p6185
aVbrazil
p6186
aVsnuff
p6187
aVmoorpark
p6188
aVinappropriate
p6189
aVshaved
p6190
aVsair
p6191
aVprocrastinating
p6192
aVgems
p6193
aVlazy
p6194
aVomg
p6195
aVwears
p6196
aVomd
p6197
aVignorance
p6198
aVlotion
p6199
aVgentry
p6200
aVolimpico
p6201
aVcousin
p6202
aVpicking
p6203
aVmeaningful
p6204
aVsophie
p6205
aVsuggested
p6206
aVsnakebites
p6207
aVbumukas
p6208
aVfne
p6209
aVurls
p6210
aVuni
p6211
aVunm
p6212
aVyaay
p6213
aVrecapping
p6214
aVfillmore
p6215
aVkwon
p6216
aVappeared
p6217
aVgathering
p6218
aVheight
p6219
aVofferings
p6220
aVquinn
p6221
aVmarmite
p6222
aVsprings
p6223
aVsan
p6224
aVproceeded
p6225
aVsam
p6226
aVfutility
p6227
aVtiny
p6228
aVcyrus
p6229
aVting
p6230
aVcommission
p6231
aVurghh
p6232
aVbasil
p6233
aVentered
p6234
aVlovely
p6235
aVokayy
p6236
aVayaw
p6237
aVthrew
p6238
aVwebsite
p6239
aVstresses
p6240
aVquantities
p6241
aVsunshine
p6242
aVmcb
p6243
aVmints
p6244
aVbuyin
p6245
aVtapping
p6246
aVpyro
p6247
aVlionel
p6248
aVtank
p6249
aVforum
p6250
aVwoah
p6251
aVslp
p6252
aVugly
p6253
aVnear
p6254
aVmelted
p6255
aVsuppose
p6256
aVitinerary
p6257
aVnexenta
p6258
aVnoww
p6259
aVchilling
p6260
aVpessimistic
p6261
aVseven
p6262
aViz
p6263
aVexistence
p6264
aVmexico
p6265
aViq
p6266
aVip
p6267
aVsushi
p6268
aVmoodd
p6269
aVdefeated
p6270
aViv
p6271
aVshame
p6272
aVcant
p6273
aVim
p6274
aVmercci
p6275
aVjest
p6276
aVeuthanasia
p6277
aVight
p6278
aVseattle
p6279
aVmouse
p6280
aVid
p6281
aVdisappear
p6282
aVgrown
p6283
aVbottles
p6284
aVcools
p6285
aVbelle
p6286
aVrealizing
p6287
aVbella
p6288
aVmeetup
p6289
aVroland
p6290
aVhahah
p6291
aVunfortunate
p6292
aVreceipt
p6293
aVshoveling
p6294
aVmessagery
p6295
aVhahaa
p6296
aVgrows
p6297
aVbells
p6298
aVlunes
p6299
aVhomeschool
p6300
aVello
p6301
aVbrowsing
p6302
aVopenspacecode
p6303
aVelle
p6304
aVkit
p6305
aVwaterfall
p6306
aVgarlic
p6307
aVkim
p6308
aVjealous
p6309
aVovers
p6310
aVlarissa
p6311
aVkid
p6312
aVbutter
p6313
aVpracticee
p6314
aVsmokey
p6315
aVnesaprot
p6316
aVsettled
p6317
aVfailing
p6318
aVbitchess
p6319
aVkaso
p6320
aVtwitterbar
p6321
aVmaterials
p6322
aVreese
p6323
aVpandora
p6324
aVlolornamarie
p6325
aVclaims
p6326
aVflops
p6327
aVleft
p6328
aVjuss
p6329
aVsentence
p6330
aVyea
p6331
aVunfollow
p6332
aVpersonagem
p6333
aVyee
p6334
aVunfair
p6335
aVyey
p6336
aVbandwidth
p6337
aVpsych
p6338
aVhotspot
p6339
aVhitchiker
p6340
aVyep
p6341
aVyes
p6342
aVyer
p6343
aVtattooed
p6344
aVyew
p6345
aVbelfast
p6346
aVcharacter
p6347
aVjules
p6348
aVsquad
p6349
aVcontestant
p6350
aVsave
p6351
aVuneventful
p6352
aVopt
p6353
aVglittery
p6354
aVops
p6355
aVtmro
p6356
aVfeets
p6357
aVtmrw
p6358
aVbailey
p6359
aVbackground
p6360
aVchorro
p6361
aVmitchel
p6362
aVdreams
p6363
aVtweebia
p6364
aVnevermind
p6365
aVbirgit
p6366
aVnude
p6367
aVperforming
p6368
aVmanual
p6369
aVunnecessary
p6370
aVdeireadh
p6371
aVzombies
p6372
aVprepping
p6373
aVdeal
p6374
aVpacquiao
p6375
aVresorted
p6376
aVdeaf
p6377
aVsomehow
p6378
aVdead
p6379
aVwwe
p6380
aVintern
p6381
aVkbbq
p6382
aVdear
p6383
aVstraightening
p6384
aVtrace
p6385
aVfecked
p6386
aVdaytime
p6387
aVarguing
p6388
aVbukas
p6389
aVshakespeare
p6390
aVsubsription
p6391
aVwednessday
p6392
aVbamboozle
p6393
aVtweeties
p6394
aVmeanings
p6395
aVdunkin
p6396
aVburn
p6397
aVfaery
p6398
aVburt
p6399
aVseptum
p6400
aVhtpc
p6401
aVsuper
p6402
aVpuking
p6403
aVyelling
p6404
aVribs
p6405
aVmagazine
p6406
aVafternoon
p6407
aVmccann
p6408
aVsitemodeling
p6409
aVniin
p6410
aVautomatically
p6411
aVchienn
p6412
aVtonsilitis
p6413
aVnerve
p6414
aVcoins
p6415
aVwhats
p6416
aVlied
p6417
aVanniversaryy
p6418
aVwhatz
p6419
aVromulus
p6420
aVnegative
p6421
aVpair
p6422
aVcurling
p6423
aVjenn
p6424
aVamsterdam
p6425
aVrant
p6426
aVparade
p6427
aVgaffa
p6428
aVihad
p6429
aVamazingly
p6430
aVtennis
p6431
aVjealousy
p6432
aVclifftop
p6433
aVeditor
p6434
aVcomcast
p6435
aVtimestamped
p6436
aVoffering
p6437
aVbatman
p6438
aVfireworks
p6439
aVlanding
p6440
aVford
p6441
aVfailure
p6442
aVbeshie
p6443
aVsexxii
p6444
aVforr
p6445
aVadministering
p6446
aVstreaming
p6447
aVtingtings
p6448
aVtemped
p6449
aVattached
p6450
aVtrends
p6451
aVblueberry
p6452
aVtucson
p6453
aVeconomic
p6454
aVcaptin
p6455
aVterabithia
p6456
aVdaddy
p6457
aVpeterfacinelli
p6458
aVdelete
p6459
aVshih
p6460
aVsticks
p6461
aVclassic
p6462
aVshia
p6463
aVcovers
p6464
aVsticky
p6465
aVfashioned
p6466
aVmuffins
p6467
aVship
p6468
aVshit
p6469
aVadelaide
p6470
aVrolandgarros
p6471
aVholla
p6472
aVvista
p6473
aVaunts
p6474
aVexcel
p6475
aVvenison
p6476
aVbrianne
p6477
aVdigital
p6478
aVwarehouse
p6479
aVblaah
p6480
aVhangin
p6481
aVtamale
p6482
aVroomies
p6483
aVjimmie
p6484
aVdies
p6485
aVlangland
p6486
aVgametrailers
p6487
aVunwell
p6488
aVsouthbank
p6489
aVfell
p6490
aVbrightens
p6491
aVpizzas
p6492
aVweekend
p6493
aVdied
p6494
aVbabysitting
p6495
aVsno
p6496
aVfsc
p6497
aVhappening
p6498
aVpotato
p6499
aVblushing
p6500
aVluckyy
p6501
aVdundonald
p6502
aVdaily
p6503
aVjacket
p6504
aVstripping
p6505
aVteeth
p6506
aVrestored
p6507
aVmanaged
p6508
aVtwenty20
p6509
aVskip
p6510
aVcuttin
p6511
aVsylb
p6512
aVthemes
p6513
aVmild
p6514
aVmile
p6515
aVskin
p6516
aVmilo
p6517
aVsould
p6518
aVcommentaries
p6519
aVmilk
p6520
aVseasick
p6521
aVgirlfreind
p6522
aVanticipation
p6523
aVyummy
p6524
aVsheckler
p6525
aVfather
p6526
aVprom
p6527
aVratsies
p6528
aVdebora
p6529
aVhurtin
p6530
aVanswered
p6531
aVfinally
p6532
aVyummi
p6533
aVlalet
p6534
aVmarks
p6535
aVmerning
p6536
aVsuffered
p6537
aVstring
p6538
aVtends
p6539
aVccbbaa
p6540
aVtacos
p6541
aVbangingg
p6542
aVianto
p6543
aVadvised
p6544
aVma
p6545
aVdin
p6546
aVdie
p6547
aVdig
p6548
aVaccidentally
p6549
aVtravels
p6550
aVitem
p6551
aVcheesburger
p6552
aVhunkalerts
p6553
aVdestressing
p6554
aVround
p6555
aVdis
p6556
aVshave
p6557
aVlixx
p6558
aVtalaga
p6559
aVtalked
p6560
aVfearing
p6561
aVdealing
p6562
aVrefusing
p6563
aVsaranghae
p6564
aVeating
p6565
aVhahhahahhahahahaha
p6566
aVtargets
p6567
aVafghanistan
p6568
aVmyweakness
p6569
aVcalamari
p6570
aVcrazzy
p6571
aVdaft
p6572
aVpossibilites
p6573
aVinternational
p6574
aVfilled
p6575
aVhummer
p6576
aVpalmer
p6577
aVmarrweennies
p6578
aVinstall
p6579
aVbandwagon
p6580
aVguardian
p6581
aVmakeup
p6582
aVfrench
p6583
aVyakka
p6584
aVshoudlnt
p6585
aVaurelius
p6586
aVteamviewer
p6587
aVnimmz
p6588
aVearthquake
p6589
aVwait
p6590
aVbox
p6591
aVboy
p6592
aVhbo
p6593
aVcanadian
p6594
aVshift
p6595
aVmahirap
p6596
aVbot
p6597
aVbow
p6598
aVsimultaneous
p6599
aVfortress
p6600
aVsuggestion
p6601
aVboo
p6602
aVpriceless
p6603
aVbob
p6604
aVstubbed
p6605
aVgenuinely
p6606
aVtreasure
p6607
aVuseful
p6608
aVaidan
p6609
aViann
p6610
aVhotels
p6611
aVraspberry
p6612
aVsaki
p6613
aVperf
p6614
aVariel
p6615
aVvisit
p6616
aVfrance
p6617
aVconnector
p6618
aVcreamy
p6619
aVayy
p6620
aVppii
p6621
aVcircumsicion
p6622
aVtachycardia
p6623
aVcreams
p6624
aVmanong
p6625
aVknohow
p6626
aVsharing
p6627
aVooc
p6628
aVbeholder
p6629
aVcurriculum
p6630
aVooi
p6631
aVooh
p6632
aVdowntown
p6633
aVoow
p6634
aVrigid
p6635
aVeffort
p6636
aVfly
p6637
aVwayrin
p6638
aVcaroline
p6639
aVmmhmm
p6640
aVavoiding
p6641
aVquoting
p6642
aVflu
p6643
aVsoul
p6644
aVreviews
p6645
aVsoup
p6646
aVgrowing
p6647
aVarrive
p6648
aVbites
p6649
aVbiter
p6650
aVnearest
p6651
aVcrazy
p6652
aVpredict
p6653
aVfriggen
p6654
aVfuck
p6655
aVdrawer
p6656
aVcouncil
p6657
aVlimewires
p6658
aVredness
p6659
aVpink
p6660
aVsteve
p6661
aVpina
p6662
aVping
p6663
aVnyt
p6664
aVtill
p6665
aVsunday
p6666
aVohman
p6667
aVsword
p6668
aVpins
p6669
aVnyc
p6670
aVtanners
p6671
aVtila
p6672
aVmerkel
p6673
aVmap
p6674
aVstaying
p6675
aVdesigner
p6676
aVwowzer
p6677
aVsna
p6678
aVreps
p6679
aVguyd
p6680
aVmac
p6681
aVmad
p6682
aVmag
p6683
aVmah
p6684
aVmak
p6685
aVguys
p6686
aVgrow
p6687
aVjellyfish
p6688
aVhannover
p6689
aVneck
p6690
aVjohnson
p6691
aVmaybe
p6692
aVfluent
p6693
aVswitch
p6694
aVlazzy
p6695
aVjail
p6696
aVblock
p6697
aVbasket
p6698
aVtall
p6699
aVnect
p6700
aVtalk
p6701
aVcute
p6702
aVshoes
p6703
aVwishing
p6704
aVwadup
p6705
aVlyrid
p6706
aVterrace
p6707
aVshake
p6708
aVcuty
p6709
aVthanl
p6710
aVtexan
p6711
aVpolice
p6712
aVthank
p6713
aVjasonc
p6714
aVjokess
p6715
aVtwittertwatter
p6716
aVmaid
p6717
aVcoaching
p6718
aVawhawhawhawh
p6719
aVthanx
p6720
aVtweets
p6721
aVmail
p6722
aVtomorow
p6723
aVmain
p6724
aVtexas
p6725
aVlakshmi
p6726
aVjaneiro
p6727
aVbein
p6728
aVkiller
p6729
aVshatter
p6730
aVsooner
p6731
aVlunch
p6732
aVsrsly
p6733
aVsafari
p6734
aVgate
p6735
aVkilled
p6736
aVtaht
p6737
aVmuullaahh
p6738
aVbeach
p6739
aVartist
p6740
aVdeutschland
p6741
aVcareless
p6742
aVmaher
p6743
aVrock
p6744
aVsejaye
p6745
aVlocate
p6746
aVgreedier
p6747
aVagin
p6748
aVabnormal
p6749
aVcherubs
p6750
aVfingertips
p6751
aVgirl
p6752
aVharker
p6753
aVdescription
p6754
aVcanada
p6755
aVliving
p6756
aVstitch
p6757
aVripe
p6758
aVhiunny
p6759
aVbogle
p6760
aVinterference
p6761
aVskyline
p6762
aVmiles
p6763
aVpamela
p6764
aVsmells
p6765
aVdioxide
p6766
aVblarrgghh
p6767
aVdominate
p6768
aVhoppusday
p6769
aVmonster
p6770
aVsideways
p6771
aVargument
p6772
aVauck
p6773
aVpumping
p6774
aVauch
p6775
aVajax
p6776
aVackles
p6777
aVcalifornia
p6778
aVvinyl
p6779
aVjacks
p6780
aVbrooke
p6781
aVcough
p6782
aVorc
p6783
aVadvance
p6784
aVunderwear
p6785
aVlanguage
p6786
aVwaiter
p6787
aVdrizzling
p6788
aVheadphones
p6789
aVcontented
p6790
aVmesh
p6791
aVyest
p6792
aVyess
p6793
aVnikko
p6794
aVwaited
p6795
aVcheese
p6796
aVdoubleshots
p6797
aVoohh
p6798
aVxoxo
p6799
aVrachel
p6800
aVamericans
p6801
aVfast
p6802
aVsuspended
p6803
aVcarry
p6804
aVsounds
p6805
aVlittle
p6806
aVworkaround
p6807
aVarch
p6808
aVslept
p6809
aVuhmzrzz
p6810
aVescort
p6811
aVsims2
p6812
aVspeaking
p6813
aVpoiint
p6814
aVangried2me
p6815
aVmemo
p6816
aVbumsville
p6817
aVcrucifixtion
p6818
aVbroadcast
p6819
aVamin
p6820
aVhartford
p6821
aVeyed
p6822
aVbutt
p6823
aVcutner
p6824
aVundoubtedly
p6825
aVcracks
p6826
aVsailing
p6827
aVgotta
p6828
aVmaximillian
p6829
aVacceptance
p6830
aVlullaby
p6831
aVconcrete
p6832
aVappreciate
p6833
aVtopics
p6834
aVtexsasa
p6835
aVwowow
p6836
aVdash
p6837
aVwinding
p6838
aVadele
p6839
aVdeprime
p6840
aVvoiced
p6841
aVharley
p6842
aVsherbert
p6843
aVkevin
p6844
aVspeakers
p6845
aVburnin
p6846
aVefficient
p6847
aVadvil
p6848
aVanswering
p6849
aVupgrading
p6850
aVshocked
p6851
aVendangered
p6852
aVclearwater
p6853
aVpotential
p6854
aVcreatively
p6855
aVperformance
p6856
aVoowh
p6857
aVeyepiece
p6858
aVswitching
p6859
aVchannel
p6860
aVultimate
p6861
aVbets
p6862
aVyouself
p6863
aVskinned
p6864
aVpain
p6865
aVnorman
p6866
aVtheatre
p6867
aVnormal
p6868
aVtrack
p6869
aVcerial
p6870
aVpaid
p6871
aVrehearsal
p6872
aVbeta
p6873
aVcannt
p6874
aVsheets
p6875
aVcanny
p6876
aVtracy
p6877
aVproxies
p6878
aVcinnamint
p6879
aVqueens
p6880
aVviewable
p6881
aVespecially
p6882
aVsurprising
p6883
aVfer
p6884
aVangst
p6885
aVlarry
p6886
aVhappy2bgoing
p6887
aVespecialli
p6888
aVlavato
p6889
aVstockings
p6890
aVshop
p6891
aVmaxine
p6892
aVshot
p6893
aVwifebeater
p6894
aVoxidating
p6895
aVtwitterpic
p6896
aVmoderator
p6897
aVtherapist
p6898
aVshoe
p6899
aVcorner
p6900
aVtakin
p6901
aVcurled
p6902
aVgage
p6903
aVstormy
p6904
aVdick
p6905
aVstorms
p6906
aVharharhar
p6907
aVblack
p6908
aVholby
p6909
aVranking
p6910
aViplayer
p6911
aVhawt
p6912
aVmuni
p6913
aVcontracts
p6914
aVstomp
p6915
aVdesignated
p6916
aVmuna
p6917
aVmilkshakes
p6918
aVemployers
p6919
aVrepo
p6920
aVkillers
p6921
aVnearly
p6922
aVgee
p6923
aVgeo
p6924
aVgen
p6925
aVsecondary
p6926
aVdianna
p6927
aVsaleing
p6928
aVcolossus
p6929
aVweatehr
p6930
aVmorning
p6931
aVstupid
p6932
aVmiley
p6933
aVfinishing
p6934
aVworrying
p6935
aVwiki
p6936
aVdeclared
p6937
aVdeffently
p6938
aVhonesty
p6939
aVseat
p6940
aVcocktails
p6941
aVsean
p6942
aVteething
p6943
aVmedusa
p6944
aVrevoir
p6945
aVcalendar
p6946
aVjelena
p6947
aVunbelievabley
p6948
aVwonder
p6949
aVcamping
p6950
aVsleepin
p6951
aVain
p6952
aVcarradine
p6953
aVlabel
p6954
aVwhereabouts
p6955
aVbehing
p6956
aVpump
p6957
aVgaga
p6958
aVdiamonds
p6959
aVreading
p6960
aVchecks
p6961
aVaugust
p6962
aVparent
p6963
aVkool
p6964
aVjt
p6965
aVtut
p6966
aVjv
p6967
aVpiccadilly
p6968
aVjr
p6969
aVkilling
p6970
aVjo
p6971
aVtun
p6972
aVjk
p6973
aVjd
p6974
aVtub
p6975
aVjg
p6976
aVtue
p6977
aVjb
p6978
aVjc
p6979
aVjfk
p6980
aVdates
p6981
aVrugby
p6982
aVchelsea
p6983
aVaccording
p6984
aVblasts
p6985
aVsketchy
p6986
aVdisappointment
p6987
aVdiamond2
p6988
aVawards
p6989
aVtorrential
p6990
aVsuuch
p6991
aVunles
p6992
aVcancer
p6993
aVkiara
p6994
aVstretched
p6995
aVcancel
p6996
aVassociated
p6997
aVzooey
p6998
aVconsidering
p6999
aVunusual
p7000
aVunderworld
p7001
aVcapable
p7002
aVbarry
p7003
aVcertify
p7004
aVmark
p7005
aVmaru
p7006
aVworkshop
p7007
aVslackware
p7008
aVmars
p7009
aVmary
p7010
aVoffered
p7011
aVstreaks
p7012
aVlaptops
p7013
aVwake
p7014
aVoverdose
p7015
aVhardcore
p7016
aVodyssey
p7017
aVmegavideo
p7018
aVsound
p7019
aVdisconnected
p7020
aVsayang
p7021
aVbushfires
p7022
aVprofiles
p7023
aVcompile
p7024
aVhdd
p7025
aVmargie
p7026
aVcancelled
p7027
aVfuckedd
p7028
aVcock
p7029
aVshidd
p7030
aVbathrooms
p7031
aVstrait
p7032
aVsleeping
p7033
aVmiddle
p7034
aVrelying
p7035
aVsudden
p7036
aVeveryday
p7037
aVwoken
p7038
aVgrimsby
p7039
aVbags
p7040
aVpat
p7041
aVharsh
p7042
aVfriendster
p7043
aVdoctor
p7044
aVdelago
p7045
aVpay
p7046
aVedwin
p7047
aVwoodland
p7048
aVtour
p7049
aVenquiries
p7050
aVpac
p7051
aVspeech
p7052
aVaerobics
p7053
aVstruggling
p7054
aVpam
p7055
aVpan
p7056
aVdated
p7057
aVdestroytwitter
p7058
aVjeffrey
p7059
aVoil
p7060
aVoic
p7061
aVinbetween
p7062
aVafeghanistan
p7063
aVclimbing
p7064
aVcuties
p7065
aVtotally
p7066
aVp90x
p7067
aVdrain
p7068
aVpeterborough
p7069
aVconor
p7070
aVamazes
p7071
aVwhatwhatwhat
p7072
aVmoelwyns
p7073
aVtito
p7074
aVamazed
p7075
aVconsisted
p7076
aVpeace
p7077
aVmoney
p7078
aVpissing
p7079
aVwifey
p7080
aVxboxe3
p7081
aVdementor
p7082
aVclueless
p7083
aVapplication
p7084
aVtourism
p7085
aVpoliticians
p7086
aVstarsearch
p7087
aVbackround
p7088
aVpile
p7089
aVgrip
p7090
aVtrucco
p7091
aVjake
p7092
aVgloom
p7093
aVhopin
p7094
aVwriten
p7095
aVdougies
p7096
aVmow
p7097
aVweavings
p7098
aVmon
p7099
aVmom
p7100
aVaftrall
p7101
aVrailroad
p7102
aVaiming
p7103
aVdisappointed
p7104
aVnanda
p7105
aVchristina
p7106
aVdefinently
p7107
aVtwittered
p7108
aVlightning
p7109
aVthorpe
p7110
aVnotified
p7111
aVaudience
p7112
aVlaughing
p7113
aVomgg
p7114
aVadamo
p7115
aVvoluntarily
p7116
aVpassionate
p7117
aVtwitterer
p7118
aVdale
p7119
aVsweetheart
p7120
aVcabo
p7121
aVdoll
p7122
aVnaan
p7123
aVarchineer
p7124
aVwigan
p7125
aVspecified
p7126
aVsnoring
p7127
aVorganizing
p7128
aVmatching
p7129
aVspasm
p7130
aVexplode
p7131
aVsaddface
p7132
aVoutt
p7133
aVlotta
p7134
aVconfirm
p7135
aVdrenched
p7136
aVlotto
p7137
aVfluids
p7138
aVouta
p7139
aVkmu
p7140
aVaussie
p7141
aVholdin
p7142
aVdoggy
p7143
aVcramps
p7144
aVsmiley
p7145
aVkyoto
p7146
aVhurrts
p7147
aVarts
p7148
aVbroken
p7149
aVdrums
p7150
aVdefinitly
p7151
aVrefers
p7152
aVtease
p7153
aVroar
p7154
aVisland
p7155
aVfringe
p7156
aVbonding
p7157
aVmixes
p7158
aVpractical
p7159
aVpockets
p7160
aVyouve
p7161
aVmixed
p7162
aVthreesome
p7163
aValec
p7164
aVzakk
p7165
aVroad
p7166
aVfallacy
p7167
aVcremer
p7168
aVannoyn
p7169
aVcoupon
p7170
aVblessed
p7171
aVreferences
p7172
aVinbox
p7173
aVgradschool
p7174
aVdreaming
p7175
aVyyj
p7176
aVpastures
p7177
aVsadder
p7178
aVtrapeze
p7179
aVminsanan
p7180
aVcordell
p7181
aVstrip
p7182
aVmondays
p7183
aVearphones
p7184
aVmondayy
p7185
aVpretends
p7186
aVchats
p7187
aVtrey
p7188
aVcarefully
p7189
aVspicy
p7190
aVpurgatory
p7191
aVnightshift
p7192
aVteabunny
p7193
aVjerrie
p7194
aVpleased
p7195
aVfricken
p7196
aVstrikes
p7197
aVsophisticated
p7198
aVdownstairs
p7199
aVdontlietomecuzicanttakeit
p7200
aVcacti
p7201
aVarranged
p7202
aVnakakasawa
p7203
aVcelebrating
p7204
aVpacman
p7205
aVstrawberry
p7206
aVpeeking
p7207
aVsuitcase
p7208
aVleaked
p7209
aVvideos
p7210
aVyoutube
p7211
aVdeer
p7212
aVdeep
p7213
aVfellow
p7214
aVdeen
p7215
aVimagination
p7216
aVfile
p7217
aVgirlfriend
p7218
aVlifetime
p7219
aVfilm
p7220
aVfill
p7221
aVtedious
p7222
aVselfish
p7223
aVdrivers
p7224
aVzelda
p7225
aVeffin
p7226
aVcleanup
p7227
aVrevisions
p7228
aVstilted
p7229
aVgurll
p7230
aVshelter
p7231
aVchris
p7232
aVauditioning
p7233
aVsneeze
p7234
aVdbrand
p7235
aVmozzies
p7236
aVvillopoto
p7237
aVremote
p7238
aVunload
p7239
aVdisabilities
p7240
aVsicky
p7241
aVcollegiate
p7242
aVbirthay
p7243
aVgod
p7244
aValright
p7245
aVhusky
p7246
aVsicko
p7247
aVshazam
p7248
aVforget
p7249
aVvile
p7250
aVdiesel
p7251
aVnonexistant
p7252
aVallergy
p7253
aVworms
p7254
aVawhh
p7255
aVbof
p7256
aVbrowsers
p7257
aVinvariably
p7258
aVtalks
p7259
aVliam
p7260
aVmommies
p7261
aVchildren
p7262
aVemily
p7263
aVshattered
p7264
aVimma
p7265
aVtrixie
p7266
aVenkeli
p7267
aVfairways
p7268
aValberta
p7269
aVenjoying
p7270
aVmornin
p7271
aVparcel
p7272
aVreturning
p7273
aVmornig
p7274
aVpuffy
p7275
aVjonasinbrasil
p7276
aVscout
p7277
aVbestie
p7278
aVfall
p7279
aVdifference
p7280
aVramen
p7281
aVsquirted
p7282
aVtrippin
p7283
aVwsb
p7284
aVwashing
p7285
aVdidja
p7286
aVcatherine
p7287
aVmothers
p7288
aVcelebrity
p7289
aVreminding
p7290
aVreallyy
p7291
aVromping
p7292
aVreleasin
p7293
aVtitled
p7294
aVgrabs
p7295
aVburger
p7296
aVoutof
p7297
aVcottonwood
p7298
aVperspective
p7299
aVmmkayy
p7300
aVlayover
p7301
aVgm
p7302
aVrere
p7303
aVabc
p7304
aVstood
p7305
aVtcot
p7306
aVagenda
p7307
aVcaffeine
p7308
aVrelaax
p7309
aVabs
p7310
aVabt
p7311
aVdoafter
p7312
aVpublic
p7313
aVmovement
p7314
aVwatevs
p7315
aVpromising
p7316
aVcomponent
p7317
aVminitoilet
p7318
aVfavourable
p7319
aVjonas
p7320
aVacatully
p7321
aVstandard
p7322
aVsabraw
p7323
aVsearch
p7324
aVbible
p7325
aVmedici
p7326
aVjackie
p7327
aVscurry
p7328
aVaku
p7329
aVairport
p7330
aVlasagna
p7331
aVuncharted
p7332
aVpublished
p7333
aVparenthetical
p7334
aVhimym
p7335
aVlke
p7336
aVcaptions
p7337
aVbuses
p7338
aVbarker
p7339
aVtransit
p7340
aVafrica
p7341
aVsadish
p7342
aVbungy
p7343
aVarmed
p7344
aVhearbreaking
p7345
aVtwitterrific
p7346
aVtwc
p7347
aVtrish
p7348
aVeye
p7349
aVnothings
p7350
aVdestination
p7351
aVtexting
p7352
aVpuke
p7353
aVdamaged
p7354
aVsplash
p7355
aVtorri
p7356
aVjive
p7357
aVdunks
p7358
aVrecomendations
p7359
aVscotia
p7360
aVnver
p7361
aVramona
p7362
aVengaged
p7363
aVmozilla
p7364
aVasheville
p7365
aVlemons
p7366
aVnecroville
p7367
aVboredd
p7368
aVtown
p7369
aVnone
p7370
aVspymasters
p7371
aVsucky
p7372
aVnono
p7373
aVnsync
p7374
aVder
p7375
aVmaniac
p7376
aVsucks
p7377
aVdev
p7378
aVdeh
p7379
aVparagraph
p7380
aVfereks
p7381
aVden
p7382
aVdeb
p7383
aVmarble
p7384
aVdef
p7385
aVhamburger
p7386
aVlilmisstory
p7387
aVshare
p7388
aVstraightner
p7389
aVcollision
p7390
aVcarefullest
p7391
aVmedyo
p7392
aVsharp
p7393
aVbiography
p7394
aVstil
p7395
aVawkward
p7396
aVcomfort
p7397
aVpressing
p7398
aVneeda
p7399
aVquesadilla
p7400
aVboxset
p7401
aVryt
p7402
aVstir
p7403
aVlavo
p7404
aVhardees
p7405
aVadvice
p7406
aVbkk
p7407
aVblood
p7408
aVcoming
p7409
aVcairngorm
p7410
aVbloom
p7411
aVresponse
p7412
aValps
p7413
aVchute
p7414
aVcrowded
p7415
aVtweeting
p7416
aVpaw
p7417
aVient
p7418
aVeats
p7419
aVhatton
p7420
aVpleasure
p7421
aVplaying
p7422
aVcs3
p7423
aVswamped
p7424
aVusername
p7425
aVmorining
p7426
aVreqired
p7427
aVindustrial
p7428
aVdough
p7429
aVvhi
p7430
aVsuffer
p7431
aVgolfing
p7432
aVmessed
p7433
aVpens
p7434
aVlats
p7435
aVthnx
p7436
aVdolla
p7437
aVlate
p7438
aVpci
p7439
aVcrawly
p7440
aVpenn
p7441
aVbaad
p7442
aVpcd
p7443
aVdolls
p7444
aVwimbeldon
p7445
aVhurting
p7446
aVpuck
p7447
aVhappymothers
p7448
aVseeking
p7449
aVgoon
p7450
aVnoticing
p7451
aVuhh
p7452
aVouuhh
p7453
aVwalls
p7454
aVhaoxjakld
p7455
aVgoos
p7456
aVuhs
p7457
aVcompound
p7458
aVoki
p7459
aVcopious
p7460
aVokk
p7461
aViranians
p7462
aVcomplain
p7463
aVviewers
p7464
aVmystery
p7465
aVeasily
p7466
aVrobbie
p7467
aVpregnant
p7468
aVsuprise
p7469
aVdrake
p7470
aVashes
p7471
aVgoofy
p7472
aVwimbledon
p7473
aVpositions
p7474
aVbiscuits
p7475
aVports
p7476
aVhongry
p7477
aVmental
p7478
aVpleatau
p7479
aVmeaningless
p7480
aVhouse
p7481
aVenergy
p7482
aVhard
p7483
aVidea
p7484
aVfoxes
p7485
aVfiss
p7486
aVwiggling
p7487
aVconnect
p7488
aVscissors
p7489
aVseniority
p7490
aVportland
p7491
aVhart
p7492
aVinsurance
p7493
aVperry
p7494
aVskatin
p7495
aVsingapore
p7496
aVtongan
p7497
aVparticipants
p7498
aVtweetalicious
p7499
aVpodgy
p7500
aVironed
p7501
aVshuk
p7502
aVpathetic
p7503
aVlawrence
p7504
aVsquished
p7505
aVmotherfucker
p7506
aVmms
p7507
aVchemicalkid
p7508
aVsbb
p7509
aVusin
p7510
aVulyanin
p7511
aVgiveaway
p7512
aVbeginning
p7513
aVparred
p7514
aVplanted
p7515
aVfaucet
p7516
aVsubang
p7517
aVdeleting
p7518
aVcomputers
p7519
aVrunning
p7520
aVguinness
p7521
aVwither
p7522
aVpos
p7523
aVtaho
p7524
aVulyour
p7525
aVcopper
p7526
aVhannas
p7527
aVdeansgate
p7528
aVdont
p7529
aVnach
p7530
aVwages
p7531
aVcups
p7532
aVjogg
p7533
aVkillin
p7534
aVtwenty
p7535
aVkipp
p7536
aVquinto
p7537
aVobligatory
p7538
aVpaint
p7539
aVpains
p7540
aVmama
p7541
aVhummingbird
p7542
aVkow
p7543
aVmuscles
p7544
aVparc
p7545
aVpara
p7546
aVpark
p7547
aVdentist
p7548
aVawesomeness
p7549
aVlivestream
p7550
aVpawpawty
p7551
aVdoctors
p7552
aVqld
p7553
aVbelieve
p7554
aVcarnage
p7555
aVpeaked
p7556
aVfarming
p7557
aVcommiserate
p7558
aVpickups
p7559
aVgotten
p7560
aVlegard
p7561
aVrecording
p7562
aVsupposed
p7563
aVinsightful
p7564
aVtreated
p7565
aVinteractive
p7566
aVoutta
p7567
aVzz
p7568
aVreunion
p7569
aVages
p7570
aVwellington
p7571
aVshowers
p7572
aVmeltdown
p7573
aVaged
p7574
aVfading
p7575
aVmilloins
p7576
aVmountain
p7577
aVbuilt
p7578
aVdancing
p7579
aVpinkie
p7580
aVcouch
p7581
aVcaesar
p7582
aVbuild
p7583
aVflicks
p7584
aVwaitin
p7585
aVtoom
p7586
aVgodfather
p7587
aVeggs
p7588
aVserviced
p7589
aVdepths
p7590
aVpoke
p7591
aVcharm
p7592
aVservices
p7593
aVextremely
p7594
aVkiddies
p7595
aVkc
p7596
aVka
p7597
aVkg
p7598
aVke
p7599
aVkk
p7600
aVshowcase
p7601
aVko
p7602
aVkm
p7603
aVkl
p7604
aVverbally
p7605
aVkp
p7606
aVchester
p7607
aVweigh
p7608
aVky
p7609
aVbuatin
p7610
aVdodging
p7611
aVcarnt
p7612
aVthomas
p7613
aVparticularly
p7614
aVcommere
p7615
aVsorryz
p7616
aVobligations
p7617
aVchocy
p7618
aVfins
p7619
aVscattered
p7620
aVdanceline
p7621
aVcarne
p7622
aVfink
p7623
aVoutdoor
p7624
aVrelation
p7625
aVfrisco
p7626
aVjared
p7627
aVheadlines
p7628
aVfine
p7629
aVchanny
p7630
aVchoco
p7631
aVebery
p7632
aVgiant
p7633
aVsteff
p7634
aVnervous
p7635
aVruin
p7636
aVpoppin
p7637
aVunhappy
p7638
aVdysfunctional
p7639
aVoverride
p7640
aVseller
p7641
aVtoronto
p7642
aVtouchscreen
p7643
aVkerap
p7644
aVhunglow
p7645
aVpermission
p7646
aVchessmaster
p7647
aVautors
p7648
aVexpress
p7649
aVcheaper
p7650
aVswayswaybaby
p7651
aVmmhhmm
p7652
aVhahahahahahahah
p7653
aVsilk
p7654
aVblogging
p7655
aVbuilder
p7656
aVcontagious
p7657
aVgreshamblake
p7658
aVsomenthing
p7659
aVdehydration
p7660
aVremove
p7661
aVwhitening
p7662
aVcommon
p7663
aVgospel
p7664
aVkitchener
p7665
aVpastery
p7666
aVscruffy
p7667
aVhika
p7668
aVgeoff
p7669
aVindividual
p7670
aVmanly
p7671
aVtender
p7672
aVlonelyness
p7673
aVfreakkinq
p7674
aVretweet
p7675
aVcozy
p7676
aVvisiting
p7677
aVpositivity
p7678
aVburner
p7679
aVpowerhouse
p7680
aVbibisita
p7681
aVfans
p7682
aVblackcurrant
p7683
aVflame
p7684
aVcutout
p7685
aVdonate
p7686
aVtransfered
p7687
aVvindicated
p7688
aVresponses
p7689
aVcomplement
p7690
aVnashville
p7691
aVike
p7692
aVshaman
p7693
aVdipped
p7694
aVtweetbreak
p7695
aVmarilyn
p7696
aVpissed
p7697
aVfloats
p7698
aVdangit
p7699
aVrestaurant
p7700
aVbeby
p7701
aVannual
p7702
aVforeign
p7703
aVonece
p7704
aValot
p7705
aVtale
p7706
aVbaltimore
p7707
aVupgraded
p7708
aVlv10
p7709
aVrag
p7710
aVsimple
p7711
aVispls
p7712
aVrecycling
p7713
aVdeaad
p7714
aVpanicking
p7715
aVrae
p7716
aVsimply
p7717
aVparam
p7718
aVshutdown
p7719
aVpeacefull
p7720
aVmydadpwns
p7721
aVthroughout
p7722
aVexpensive
p7723
aVheadaches
p7724
aVconsuming
p7725
aVcreate
p7726
aVpanera
p7727
aVcreativity
p7728
aVmikey
p7729
aVscreened
p7730
aVsecret
p7731
aVdropping
p7732
aVireland
p7733
aVmeeting
p7734
aVnukes
p7735
aVgay
p7736
aVassorted
p7737
aVchatted
p7738
aVgas
p7739
aVsbe7
p7740
aVpricey
p7741
aVgal
p7742
aVgak
p7743
aVwhitney
p7744
aVgah
p7745
aVunatural
p7746
aVgab
p7747
aVsobe
p7748
aVlings
p7749
aVbcbg
p7750
aVtalking
p7751
aVsolid
p7752
aVbill
p7753
aVheya
p7754
aVreplaced
p7755
aVheyy
p7756
aVfun
p7757
aVfuk
p7758
aVgateshead
p7759
aVbumms
p7760
aVportugal
p7761
aVcentury
p7762
aVviolently
p7763
aVkarmic
p7764
aVechelon
p7765
aVxtra
p7766
aVaches
p7767
aVitaly
p7768
aVrutt
p7769
aVmigraine
p7770
aVsome1
p7771
aVspammy
p7772
aVruth
p7773
aVeww
p7774
aVboyzone
p7775
aVdevelopment
p7776
aVsyg
p7777
aVitch
p7778
aVsupririsie
p7779
aVkeys
p7780
aVassignment
p7781
aVleopard
p7782
aVyesterday
p7783
aVreds
p7784
aVspendin
p7785
aVmoment
p7786
aVstrength
p7787
aVpurpose
p7788
aVgenuine
p7789
aVregistrate
p7790
aVtash
p7791
aVmaupassant
p7792
aVbeanie
p7793
aVtask
p7794
aVnole
p7795
aVspent
p7796
aVcounty
p7797
aVmorrow
p7798
aVflags
p7799
aVforewarning
p7800
aVsomee
p7801
aVrevising
p7802
aVsulking
p7803
aVchemistry
p7804
aVspend
p7805
aVsheila
p7806
aVtominio
p7807
aVlottery
p7808
aVlds
p7809
aVshape
p7810
aValternative
p7811
aVinjuries
p7812
aVnewlines
p7813
aVletting
p7814
aVsuperficial
p7815
aVcut
p7816
aVcus
p7817
aVdslr
p7818
aVcup
p7819
aVhatee
p7820
aVhated
p7821
aVsnac
p7822
aVcuz
p7823
aVsource
p7824
aVbootlegs
p7825
aVhomies
p7826
aVsnap
p7827
aVbridal
p7828
aVeaster
p7829
aVexcited
p7830
aVhates
p7831
aVkitey
p7832
aVbin
p7833
aVbio
p7834
aVreutimann
p7835
aVwil
p7836
aVbid
p7837
aVazelea
p7838
aVmatters
p7839
aVblowjob
p7840
aVtruely
p7841
aVbiz
p7842
aVbleck
p7843
aVwin7
p7844
aVbit
p7845
aVblech
p7846
aVreals
p7847
aVsemo
p7848
aVknock
p7849
aVbregfust
p7850
aVrides
p7851
aVbahah
p7852
aVfluy
p7853
aVhoovering
p7854
aVbrett
p7855
aValrd
p7856
aVridculously
p7857
aVgoogle
p7858
aVagreement
p7859
aVbuttons
p7860
aVabsolutely
p7861
aVmartial
p7862
aVmirror
p7863
aVcandle
p7864
aVserver
p7865
aVourselves
p7866
aVbrent
p7867
aVscale
p7868
aVpex
p7869
aVjewelry
p7870
aVpez
p7871
aVchamber
p7872
aVpet
p7873
aVaffects
p7874
aVdecision
p7875
aVpep
p7876
aVconnecting
p7877
aVbogus
p7878
aVpronounces
p7879
aVpee
p7880
aVepic
p7881
aVinvade
p7882
aVnose
p7883
aVamazin
p7884
aVpatient
p7885
aVrapping
p7886
aVremembered
p7887
aVufc
p7888
aVcontinuing
p7889
aVtxtn
p7890
aVuff
p7891
aVusd
p7892
aVmucch
p7893
aVhippie
p7894
aVmorra
p7895
aVjeleous
p7896
aVinhumanity
p7897
aVcafe
p7898
aVgraduation
p7899
aVintestinal
p7900
aVdrama
p7901
aVbeans
p7902
aVhahahaa
p7903
aVhahahah
p7904
aVdaisies
p7905
aVpollution
p7906
aVsniffle
p7907
aVharassed
p7908
aVoverdosis
p7909
aVphizzone
p7910
aVsteven
p7911
aVfallin
p7912
aVlesson
p7913
aVbnci
p7914
aVlohan
p7915
aVontario
p7916
aVbores
p7917
aVerrand
p7918
aVinfected
p7919
aVforward
p7920
aVcashback
p7921
aVbored
p7922
aVgettn
p7923
aVinvite
p7924
aVvivan
p7925
aVmurphy
p7926
aVhoped
p7927
aVboys
p7928
aVsketchup
p7929
aVsda
p7930
aVagreeable
p7931
aVhopes
p7932
aVns2
p7933
aVmigrating
p7934
aVlifeguard
p7935
aVoriginals
p7936
aVboyy
p7937
aVrequesting
p7938
aVpercocet
p7939
aVclips
p7940
aVeverythangg
p7941
aVerase
p7942
aVdouchebuckle
p7943
aVplanes
p7944
aVarsmeet
p7945
aVconstant
p7946
aVflow
p7947
aVsingle
p7948
aVcurb
p7949
aVcurl
p7950
aVdragging
p7951
aVyearbook
p7952
aVlyk
p7953
aVfrenchopen
p7954
aVstarted
p7955
aVfunctionality
p7956
aVellen
p7957
aVtweople
p7958
aVassassinate
p7959
aVexpected
p7960
aVwonderin
p7961
aVexplaining
p7962
aVlend
p7963
aVfavourite
p7964
aVpapa
p7965
aVprepared
p7966
aVlens
p7967
aVouts
p7968
aVantennae
p7969
aVutterly
p7970
aVspeach
p7971
aVhanson
p7972
aVdesert
p7973
aVboyfriends
p7974
aVbergstroms
p7975
aVcooked
p7976
aVpitou
p7977
aVnoon
p7978
aVaguilera
p7979
aVjason
p7980
aVl8er
p7981
aVhint
p7982
aVschmutzy
p7983
aVlagerfeld
p7984
aVbulkhead
p7985
aVgroceries
p7986
aVkmft
p7987
aVpeanut
p7988
aVhelps
p7989
aVgaros
p7990
aVgravel
p7991
aVingredient
p7992
aVqueen
p7993
aVdessert
p7994
aVmeen
p7995
aVputting
p7996
aVisleofmtv
p7997
aVshifter
p7998
aVx0x0x
p7999
aVentire
p8000
aVanotha
p8001
aVwearin
p8002
aVknight
p8003
aVmidterm
p8004
aVsquarepants
p8005
aVhavent
p8006
aVjoey
p8007
aVbleeding
p8008
aVrebena
p8009
aVcarla
p8010
aVlayoutt
p8011
aVuncomfortable
p8012
aVsubstituting
p8013
aVcopenhagen
p8014
aVcroc
p8015
aVdepression
p8016
aVwaisting
p8017
aVwahoo
p8018
aVchicago
p8019
aVgiving
p8020
aVfalcons
p8021
aVharrods
p8022
aVpaddle
p8023
aVaccess
p8024
aVpayday
p8025
aVbahahaha
p8026
aVsusanne
p8027
aVexercise
p8028
aVbody
p8029
aVsharks
p8030
aVraccoons
p8031
aVexchange
p8032
aVkagaya
p8033
aVbackstory
p8034
aVsint
p8035
aVnonexistent
p8036
aViranelection
p8037
aVpacking
p8038
aVobjects
p8039
aVsink
p8040
aVsing
p8041
aVirritating
p8042
aVextreme
p8043
aVtalent
p8044
aVskool
p8045
aVharpersglobe
p8046
aValaska
p8047
aVweekday
p8048
aVclimb
p8049
aVhonor
p8050
aVnamed
p8051
aVvips
p8052
aVtau
p8053
aVcrashing
p8054
aVspeeches
p8055
aVlimp
p8056
aVprivate
p8057
aVthrowback
p8058
aVgordon
p8059
aVmahjong
p8060
aVpatrol
p8061
aVstaple
p8062
aVsermon
p8063
aVlime
p8064
aVcha
p8065
aVchi
p8066
aVtmmrw
p8067
aVflat
p8068
aVhollands
p8069
aVgangleader
p8070
aVauscham
p8071
aVdebbie
p8072
aVtheused
p8073
aVthemselves
p8074
aVdisgustingly
p8075
aVifuckinghatepatsies
p8076
aVupcoming
p8077
aVtootsie
p8078
aVduper
p8079
aVteenie
p8080
aVtrail
p8081
aVtrain
p8082
aVashamed
p8083
aVtearing
p8084
aVduped
p8085
aVsubscription
p8086
aVaccount
p8087
aVace
p8088
aVbritney
p8089
aVpatriotics
p8090
aVhicks
p8091
aVfiddle
p8092
aVcarrot
p8093
aVobvious
p8094
aVawwhh
p8095
aVclosing
p8096
aVunread
p8097
aVdidnt
p8098
aVfetch
p8099
aVgoodd
p8100
aVcontinuity
p8101
aVviolence
p8102
aVhatemongers
p8103
aVsnacks
p8104
aVinvoices
p8105
aVawesomee
p8106
aVtherin
p8107
aVeffectively
p8108
aVdm
p8109
aVbones
p8110
aVawesomes
p8111
aVserial
p8112
aVnative
p8113
aVlamb
p8114
aVpsyched
p8115
aVafo
p8116
aVdemocracy
p8117
aVlame
p8118
aVdinners
p8119
aVtimetables
p8120
aVboxing
p8121
aVhampshire
p8122
aVgonee
p8123
aVbrevard
p8124
aVhmwk
p8125
aVstock
p8126
aVprofile
p8127
aVbuildings
p8128
aVdwights
p8129
aVsir
p8130
aVfran
p8131
aVhighs
p8132
aVleukemia
p8133
aVlmfaoo
p8134
aVbothered
p8135
aVphysio
p8136
aVsoulsavers
p8137
aVfrap
p8138
aVcommunicator
p8139
aVpwede
p8140
aVfray
p8141
aVcuddling
p8142
aVambiguous
p8143
aVtethering
p8144
aVdolled
p8145
aVbing
p8146
aVlines
p8147
aVliner
p8148
aVsolos
p8149
aVlined
p8150
aVbins
p8151
aVignite
p8152
aVsummery
p8153
aVinterwebs
p8154
aVdespite
p8155
aVoral
p8156
aVivana
p8157
aVweirdly
p8158
aVflattering
p8159
aVdt
p8160
aVgalaxy
p8161
aVbunch
p8162
aVlg
p8163
aVle
p8164
aVlb
p8165
aVlc
p8166
aVla
p8167
aVlo
p8168
aVlj
p8169
aVwinning
p8170
aVlv
p8171
aVlt
p8172
aVwilling
p8173
aVwebex
p8174
aVtss
p8175
aVweber
p8176
aVly
p8177
aVdad
p8178
aVwoww
p8179
aVdam
p8180
aVdan
p8181
aVspell
p8182
aVfiesta
p8183
aVdai
p8184
aVdat
p8185
aVmention
p8186
aVcutting
p8187
aVdas
p8188
aVday
p8189
aVparrtayy
p8190
aVtusjid
p8191
aVsih
p8192
aVthrill
p8193
aVtues
p8194
aVpropelsion
p8195
aVwizzork
p8196
aVgallo
p8197
aVterrce
p8198
aVmichaels
p8199
aVmakan
p8200
aVpitty
p8201
aVpleurisy
p8202
aVbuena
p8203
aVparties
p8204
aVpantry
p8205
aVtranny
p8206
aVprogrammer
p8207
aVsexual
p8208
aVpopping
p8209
aVmatt
p8210
aVdsnt
p8211
aVrep
p8212
aVwaah
p8213
aVmate
p8214
aVmessenger
p8215
aVbarley
p8216
aVsmoe
p8217
aVlecture
p8218
aVwaay
p8219
aVred
p8220
aVgears
p8221
aVjessica
p8222
aVfrank
p8223
aVplease
p8224
aVque
p8225
aVcheasy
p8226
aVsteak
p8227
aVyard
p8228
aVcarramba
p8229
aVmidi
p8230
aVpeeve
p8231
aVclubbing
p8232
aVworkbook
p8233
aVhollister
p8234
aVretail
p8235
aVsouth
p8236
aVwhooa
p8237
aVdistracted
p8238
aVbamf
p8239
aVreaches
p8240
aVsloped
p8241
aVembarrassed
p8242
aVlagging
p8243
aVreached
p8244
aVthebajanvixen
p8245
aVancient
p8246
aVsadly
p8247
aVhee
p8248
aVrealistically
p8249
aVvagina
p8250
aVlions
p8251
aVchaser
p8252
aVmessing
p8253
aVcabin
p8254
aVgear
p8255
aVbulldog
p8256
aVcompleted
p8257
aVmigrain
p8258
aVenvironmental
p8259
aVblazers
p8260
aVboobie
p8261
aVlovee
p8262
aVloved
p8263
aVslack
p8264
aVbabyy
p8265
aVballard
p8266
aVhumped
p8267
aVsweden
p8268
aVloves
p8269
aVlover
p8270
aVvisited
p8271
aVwakes
p8272
aVjudo
p8273
aVsf4
p8274
aVtidy
p8275
aVcomfortable
p8276
aVtide
p8277
aVmornings
p8278
aVunlikely
p8279
aVthroat
p8280
aVapparently
p8281
aVqueenslanders
p8282
aVmii
p8283
aVmin
p8284
aVmia
p8285
aVmic
p8286
aVmid
p8287
aVincentive
p8288
aVmix
p8289
aVforbidden
p8290
aVcrazed
p8291
aVkyte
p8292
aVswagbucks
p8293
aVprisonbreak
p8294
aVgarlicked
p8295
aVyupp
p8296
aVreciting
p8297
aVfirefly
p8298
aVsuucks
p8299
aVprednisone
p8300
aVsfx
p8301
aVahhahahaah
p8302
aVhazel
p8303
aVeight
p8304
aVsuprisingly
p8305
aVsally
p8306
aVpayment
p8307
aVshulman
p8308
aVbatukan
p8309
aVzfs
p8310
aVlondonthings
p8311
aVenthusiastic
p8312
aVstranded
p8313
aVrequest
p8314
aVdisease
p8315
aVcapita
p8316
aVkumakanta
p8317
aVskinny
p8318
aVnormally
p8319
aVtwitteroo
p8320
aVkita
p8321
aVconsentrate
p8322
aVkite
p8323
aVtext
p8324
aVbrother
p8325
aVstaff
p8326
aVcoloring
p8327
aVrealtor
p8328
aVsparks
p8329
aVmadman
p8330
aVbernard
p8331
aVbedingfield
p8332
aVbigup
p8333
aVinferior
p8334
aVphotographs
p8335
aVxdd
p8336
aVdelirious
p8337
aVbeat
p8338
aVphotography
p8339
aVcoworker
p8340
aVstripes
p8341
aVbear
p8342
aVromantic
p8343
aVrage
p8344
aVchuffin
p8345
aVdripped
p8346
aVaccompanist
p8347
aVblogspot
p8348
aVmascara
p8349
aVfixed
p8350
aVmajorly
p8351
aVuntrue
p8352
aVtriviachallenge
p8353
aVtimezones
p8354
aVnational
p8355
aVthankss
p8356
aVintensity
p8357
aVgreece
p8358
aVracket
p8359
aVawaits
p8360
aVwalking
p8361
aVcheaters
p8362
aVpattern
p8363
aVicecream
p8364
aVroutine
p8365
aVprogress
p8366
aVspotify
p8367
aVdeliver
p8368
aVimplementing
p8369
aVpimpin
p8370
aVsynced
p8371
aVwhtvr
p8372
aVselena
p8373
aVtweetup
p8374
aVtoothbrush
p8375
aVbussin
p8376
aVcommenting
p8377
aVinstant
p8378
aVbuster
p8379
aVjoke
p8380
aVtaking
p8381
aVindulgence
p8382
aVroflmfao
p8383
aVlulus
p8384
aVagree
p8385
aVbusted
p8386
aVconquered
p8387
aVswallow
p8388
aVglorious
p8389
aVotherwise
p8390
aVcomment
p8391
aVdetailed
p8392
aVdancin
p8393
aVteasing
p8394
aVcolledge
p8395
aVstatuee
p8396
aVlaugh
p8397
aVplaylists
p8398
aVad
p8399
aVpouring
p8400
aVkingda
p8401
aVmuddy
p8402
aVwarwick
p8403
aVcurtain
p8404
aVproposal
p8405
aVdefine
p8406
aVcuddeling
p8407
aVaj
p8408
aVreceived
p8409
aVpcquiao
p8410
aVonibus
p8411
aVbulk
p8412
aVfinished
p8413
aVtense
p8414
aVkeren
p8415
aVbull
p8416
aVgross
p8417
aVkenya
p8418
aVmaxed
p8419
aVbye
p8420
aVplain
p8421
aVappearance
p8422
aVpromoter
p8423
aVpshh
p8424
aVcoy
p8425
aVhomee
p8426
aVhubs
p8427
aVfrustrating
p8428
aVcuzin
p8429
aVviry
p8430
aVfreeman
p8431
aVchaotic
p8432
aVwalks
p8433
aVreadin
p8434
aVhelped
p8435
aVoffically
p8436
aVlevyhoneymoon
p8437
aVleeuwtje
p8438
aVvclip
p8439
aVarabic
p8440
aVpissin
p8441
aVbegining
p8442
aVtireedd
p8443
aVparcs
p8444
aVadministration
p8445
aVjobros
p8446
aVfrnds
p8447
aVgamer
p8448
aVmaterial
p8449
aVjooce
p8450
aViow
p8451
aVsamantha
p8452
aVkgb
p8453
aVwhiile
p8454
aVgeekjob
p8455
aVsauna
p8456
aVbyebye
p8457
aVsisters
p8458
aVsisterr
p8459
aVsunburn
p8460
aVlasershooting
p8461
aVnumbered
p8462
aVretard
p8463
aVraping
p8464
aVsweets
p8465
aVdisappears
p8466
aVweapon
p8467
aVthoughh
p8468
aVantonio
p8469
aVexceedingly
p8470
aVoops
p8471
aVjailbreak
p8472
aVsets
p8473
aVposition
p8474
aVmuscle
p8475
aVmcintyre
p8476
aVabaa
p8477
aVstores
p8478
aVnicknames
p8479
aVdomestic
p8480
aVchord
p8481
aVclinic
p8482
aVseats
p8483
aVtone
p8484
aVmojoquiz
p8485
aVnz
p8486
aVadt
p8487
aVads
p8488
aVwinchester
p8489
aVfield
p8490
aVlake
p8491
aVbench
p8492
aVadd
p8493
aVweekedn
p8494
aVado
p8495
aVstevie
p8496
aVsmart
p8497
aVgmt
p8498
aVrealii
p8499
aVtests
p8500
aVkali
p8501
aVworlds
p8502
aVfyi
p8503
aVdryer
p8504
aVdeployment
p8505
aVinsert
p8506
aVworkk
p8507
aVohhmigod
p8508
aVsuccess
p8509
aVcrawled
p8510
aVheey
p8511
aVjournalism
p8512
aVadmitted
p8513
aVchica
p8514
aVchick
p8515
aVheei
p8516
aVsoft
p8517
aVghosted
p8518
aVqwit
p8519
aVhurtss
p8520
aVclassical
p8521
aValive
p8522
aVhair
p8523
aVpatinkin
p8524
aVrecommendation
p8525
aVproper
p8526
aVhappens
p8527
aVtmr
p8528
aVobsessed
p8529
aVtmw
p8530
aVdunes
p8531
aVhurricane
p8532
aVthrowdown
p8533
aVesc
p8534
aVassuming
p8535
aVscrewed
p8536
aVcombichrist
p8537
aVsnuggle
p8538
aVmode
p8539
aVcuteset
p8540
aVbingo
p8541
aVngayon
p8542
aVhose
p8543
aVslight
p8544
aVsasha
p8545
aVbeeb
p8546
aVkristin
p8547
aVloveletter
p8548
aVmychildren
p8549
aVsimpler
p8550
aVgifts
p8551
aVactual
p8552
aVjustin
p8553
aVcuddlies
p8554
aVshampooing
p8555
aVcockroaches
p8556
aVunderstandig
p8557
aVwaatching
p8558
aVtomm
p8559
aVtomo
p8560
aVpowerpoint
p8561
aVpunchline
p8562
aVsiterip
p8563
aVjolkina
p8564
aVafterall
p8565
aVsnitch
p8566
aVfunctional
p8567
aVsocks
p8568
aVtackle
p8569
aVdoesnt
p8570
aVfemale
p8571
aVchemisty
p8572
aVfolliage
p8573
aVwack
p8574
aVvegetables
p8575
aVextemely
p8576
aVkristinnaa
p8577
aVhasse
p8578
aVspamfilter
p8579
aVsoundtripping
p8580
aVtenchu
p8581
aVbiggest
p8582
aVquanto
p8583
aVivory
p8584
aVbuy
p8585
aVchatting
p8586
aVbus
p8587
aVcoke
p8588
aVbuu
p8589
aVreminds
p8590
aVbuh
p8591
aVcpk
p8592
aVplague
p8593
aVkthnxbi
p8594
aVbum
p8595
aVbub
p8596
aVediting
p8597
aVmemphis
p8598
aVbug
p8599
aVbud
p8600
aVlynn
p8601
aVwise
p8602
aVglory
p8603
aVdangerous
p8604
aVflip
p8605
aVminutes
p8606
aVreplying
p8607
aVprobaby
p8608
aVcircus
p8609
aVpie
p8610
aVindeedy
p8611
aVpip
p8612
aVshooting
p8613
aVpit
p8614
aVcampus
p8615
aVsilversun
p8616
aVredder
p8617
aVkamillion
p8618
aVoaa
p8619
aVfeeck
p8620
aVresharper
p8621
aVoak
p8622
aVdetail
p8623
aVvirtual
p8624
aVdetais
p8625
aVledge
p8626
aVdresses
p8627
aVmontel
p8628
aVreeally
p8629
aVshouldve
p8630
aVbundle
p8631
aVyummiest
p8632
aVmakita
p8633
aVthumping
p8634
aVtrackback
p8635
aVubk
p8636
aVhayfever
p8637
aVlactose
p8638
aVstarting
p8639
aVbakes
p8640
aVlod
p8641
aVwatah
p8642
aVkuntah
p8643
aVthunderstorms
p8644
aVaugmented
p8645
aVworldrecord
p8646
aVlimited
p8647
aVskillz
p8648
aVhymns
p8649
aVhats
p8650
aVloe
p8651
aVsleep
p8652
aVhating
p8653
aVappetite
p8654
aVhate
p8655
aVassembled
p8656
aVpoorly
p8657
aVtrolley
p8658
aVcoursse
p8659
aVfeeding
p8660
aVparis
p8661
aVtweet
p8662
aVwhatsoever
p8663
aVriedel
p8664
aVerrbody
p8665
aVsoftener
p8666
aVrisk
p8667
aVqwest
p8668
aVrise
p8669
aVlololol
p8670
aVleggings
p8671
aVjack
p8672
aVwoop
p8673
aVfireplace
p8674
aVschool
p8675
aVnomnomnom
p8676
aVbestfriend
p8677
aVkellus
p8678
aVobsessive
p8679
aVokies
p8680
aVvenue
p8681
aVcommute
p8682
aVgehry
p8683
aVvenus
p8684
aVokiee
p8685
aVenjoy
p8686
aVjustsaw
p8687
aValmond
p8688
aVdirect
p8689
aVnail
p8690
aVvannessa
p8691
aVwsop4
p8692
aVlakehouse
p8693
aVsct
p8694
aVfriendships
p8695
aVkatipunan
p8696
aVshining
p8697
aVblue
p8698
aVhide
p8699
aVchrist
p8700
aVruben
p8701
aVdeadmau5
p8702
aVkur
p8703
aVsung
p8704
aVcoasters
p8705
aVmaneater
p8706
aVblur
p8707
aVsupplies
p8708
aVinternships
p8709
aVwink
p8710
aVn00dles
p8711
aVpats
p8712
aVkicked
p8713
aVcalamaris
p8714
aVzack
p8715
aVzach
p8716
aVprata
p8717
aVdeprivation
p8718
aVhundreds
p8719
aVsocialize
p8720
aVbeck
p8721
aVlottanew
p8722
aVstudio
p8723
aVaid
p8724
aVbedbugs
p8725
aVweezer
p8726
aVdigits
p8727
aVgorbie
p8728
aVtx
p8729
aVwdf
p8730
aVattending
p8731
aVauction
p8732
aVleaves
p8733
aVchanged
p8734
aVjogging
p8735
aVsaint
p8736
aVfulltime
p8737
aVsavanna
p8738
aVchanges
p8739
aVpunishment
p8740
aVvacations
p8741
aVofft
p8742
aVstray
p8743
aVstraw
p8744
aVjulie
p8745
aVstrat
p8746
aVvisibly
p8747
aVjulia
p8748
aVfeelings
p8749
aVsorrows
p8750
aVpatience
p8751
aVgeico
p8752
aVdobson
p8753
aVamherst
p8754
aVforums
p8755
aVheathrow
p8756
aVrandomx5
p8757
aVwlfi
p8758
aVhospital
p8759
aVprincess
p8760
aVasses
p8761
aVnoting
p8762
aVspike
p8763
aVpreview
p8764
aVassessment
p8765
aVbreathe
p8766
aVreplys
p8767
aVrobbins
p8768
aVphony
p8769
aVmuse
p8770
aVgrief
p8771
aVphone
p8772
aVspazz
p8773
aVreplyd
p8774
aVexcellent
p8775
aVtampa
p8776
aVshoot
p8777
aVmd
p8778
aVsymbology
p8779
aVjoin
p8780
aVspyd
p8781
aVmb
p8782
aVmm
p8783
aVmo
p8784
aVmn
p8785
aVmi
p8786
aVmj
p8787
aVmu
p8788
aVmt
p8789
aVmv
p8790
aVhearrt
p8791
aVms
p8792
aVhenry
p8793
aVshool
p8794
aVcarmen
p8795
aVaddictive
p8796
aVshook
p8797
aVloosen
p8798
aVestate
p8799
aVkees
p8800
aVpaparazzi
p8801
aVmotivated
p8802
aVorion
p8803
aVcotija
p8804
aVtinchy
p8805
aVceremony
p8806
aVena
p8807
aVeng
p8808
aVsitting
p8809
aVsariver
p8810
aVbuns
p8811
aVwriters
p8812
aVjaljeera
p8813
aVbunt
p8814
aVaching
p8815
aVlastfm
p8816
aVwidespread
p8817
aVeyeballs
p8818
aVbadly
p8819
aVpoker
p8820
aVelizabeth
p8821
aVmouths
p8822
aVmess
p8823
aVinsecure
p8824
aVdemanding
p8825
aVjumping
p8826
aVtidying
p8827
aVsalsa
p8828
aVdanny
p8829
aVsplendid
p8830
aVcolumbia
p8831
aVberbatov
p8832
aVfunniest
p8833
aVjungle
p8834
aVenter
p8835
aValoud
p8836
aVselfridges
p8837
aVnaman
p8838
aVlondon
p8839
aVoven
p8840
aVlookout
p8841
aVvita
p8842
aVbtown
p8843
aVima
p8844
aVbeside
p8845
aVfittings
p8846
aVpolluters
p8847
aVbreeak
p8848
aVexpectations
p8849
aVimo
p8850
aVwriting
p8851
aVdestroyed
p8852
aVimy
p8853
aVsyracuse
p8854
aVcantz
p8855
aVtonyss
p8856
aVnightcap
p8857
aViowa
p8858
aVftsk
p8859
aVtwttrlist
p8860
aVwednesdays
p8861
aVnorfolk
p8862
aVrental
p8863
aVwednesdayy
p8864
aVstinking
p8865
aValex
p8866
aVjadik
p8867
aVcrunchy
p8868
aVchuck
p8869
aVdetroit
p8870
aVchoir
p8871
aVfilling
p8872
aVcongo
p8873
aVnewport
p8874
aVvictory
p8875
aVfitness
p8876
aVwaving
p8877
aVlasting
p8878
aVsigning
p8879
aVbuffy
p8880
aVmahogany
p8881
aVevry1
p8882
aVwaffle
p8883
aVsaturdau
p8884
aVpractising
p8885
aVjuggling
p8886
aVgadtorade
p8887
aVghosts
p8888
aVsaturday
p8889
aVpalpably
p8890
aVdepress
p8891
aVgoo
p8892
aVgon
p8893
aVdriving
p8894
aVfevers
p8895
aVkuwait
p8896
aVwashed
p8897
aVscrapping
p8898
aVlaid
p8899
aVmayday
p8900
aVnite
p8901
aVaja
p8902
aVnewly
p8903
aValittle
p8904
aVgor
p8905
aVsplashed
p8906
aVarizona
p8907
aVsana
p8908
aVfree
p8909
aVfred
p8910
aVthusday
p8911
aVicky
p8912
aVevil
p8913
aVacrobat
p8914
aVsuvs
p8915
aVjimijo
p8916
aVdayz
p8917
aVsods
p8918
aVdayy
p8919
aVbiltmore
p8920
aVdays
p8921
aVsandwhiches
p8922
aVoutfits
p8923
aVfilter
p8924
aVheck
p8925
aVhopeless
p8926
aVsoda
p8927
aVshootin
p8928
aVonto
p8929
aVkey
p8930
aVomgz
p8931
aVmagicc
p8932
aVexcitied
p8933
aVsakin
p8934
aVcoding
p8935
aVprimary
p8936
aVrank
p8937
aVhearing
p8938
aVrestrict
p8939
aVfantasy
p8940
aVadopted
p8941
aVsober
p8942
aVsobes
p8943
aVcalorie
p8944
aVtomarrow
p8945
aVprimark
p8946
aVexamination
p8947
aVtoy
p8948
aVrevival
p8949
aVtor
p8950
aVtop
p8951
aVeuphoric
p8952
aVfiction
p8953
aVtok
p8954
aVjamba
p8955
aVton
p8956
aVtom
p8957
aVrockin
p8958
aVkewl
p8959
aVinconvenient
p8960
aVtoe
p8961
aVceiling
p8962
aVmurder
p8963
aVconsol
p8964
aVairwaves
p8965
aVbejeezus
p8966
aVritter
p8967
aVcpantesters
p8968
aVserve
p8969
aVpondering
p8970
aVtardis
p8971
aVbrushed
p8972
aVschnauzer
p8973
aVerickson
p8974
aVnofx
p8975
aVbloated
p8976
aVzero
p8977
aVtourists
p8978
aVbethany
p8979
aVexwife
p8980
aVclasses
p8981
aVexpo
p8982
aVbrightkite
p8983
aVcresceu
p8984
aVbridge
p8985
aVlbs
p8986
aVfashion
p8987
aVlawyer
p8988
aVran
p8989
aVram
p8990
aVkyle
p8991
aVraw
p8992
aVrat
p8993
aVlunchtime
p8994
aVbeckett
p8995
aVseminar
p8996
aVray
p8997
aVdisorganised
p8998
aVcleanning
p8999
aVimola
p9000
aVthn
p9001
aVthoroughly
p9002
aVsnow
p9003
aVsnot
p9004
aVbrandon
p9005
aVclient
p9006
aVlaughed
p9007
aVyucky
p9008
aVchipmunk
p9009
aVcookout
p9010
aVstiil
p9011
aVeddna
p9012
aVphantasy
p9013
aVcentres
p9014
aVlistenning
p9015
aVseths
p9016
aVaudition
p9017
aVplenty
p9018
aVusig
p9019
aVhortons
p9020
aValabama
p9021
aVbsb
p9022
aVmixr
p9023
aVortigas
p9024
aVrogers
p9025
aVsitcoms
p9026
aVmetal
p9027
aVrancid
p9028
aVfreeway
p9029
aVunforunately
p9030
aVkarina
p9031
aVenterprise
p9032
aVentertaining
p9033
aVauzzie
p9034
aVinspire
p9035
aVcontacted
p9036
aVsaga
p9037
aVrandom
p9038
aVsage
p9039
aVexhaustedd
p9040
aVcolors
p9041
aVradio
p9042
aVsolutions
p9043
aVqueer
p9044
aVcolleague
p9045
aVearth
p9046
aVbail
p9047
aVbain
p9048
aVock
p9049
aVspite
p9050
aVsituations
p9051
aVdateline
p9052
aVminnesota
p9053
aVwestford
p9054
aVatlika
p9055
aVmakess
p9056
aVdisgust
p9057
aVphoto
p9058
aVlodge
p9059
aVchipotle
p9060
aVrss
p9061
aVoct
p9062
aVborrowed
p9063
aVgeez
p9064
aVsunglasses
p9065
aVwatch
p9066
aVfluid
p9067
aVgeek
p9068
aVamazon
p9069
aVwedding
p9070
aVreport
p9071
aVtoolbox
p9072
aVbotanical
p9073
aVholland
p9074
aVgareth
p9075
aVcountries
p9076
aVgoodbyes
p9077
aVhttrack
p9078
aVtwice
p9079
aVshots
p9080
aVjbfbdb
p9081
aVautomatic
p9082
aVhabit
p9083
aVnut
p9084
aVroadmap
p9085
aVnun
p9086
aVdemented
p9087
aVnuh
p9088
aVdisturbing
p9089
aVnoodles
p9090
aVveronicas
p9091
aVtemptation
p9092
aVsumtimes
p9093
aVgrandmother
p9094
aVhoedown
p9095
aVfinger
p9096
aVhopefully
p9097
aVmum
p9098
aVmun
p9099
aVapproach
p9100
aVmuh
p9101
aVboniver
p9102
aVdrivin
p9103
aVweak
p9104
aVboss
p9105
aVnightmares
p9106
aVsoutheast
p9107
aVphoning
p9108
aVaircons
p9109
aVwear
p9110
aVnews
p9111
aVblasted
p9112
aVeeshh
p9113
aVpuddles
p9114
aVprotect
p9115
aVbloggers
p9116
aVmeredith
p9117
aVfault
p9118
aVjelly
p9119
aVsheff
p9120
aVplayers
p9121
aVgames
p9122
aVspurs
p9123
aVthreads
p9124
aVs7s
p9125
aVexpense
p9126
aVfollowdriday
p9127
aVsuggest
p9128
aVtebuild
p9129
aVbetting
p9130
aVnasarel
p9131
aVviruses
p9132
aVtrust
p9133
aVchurchh
p9134
aVbuzzing
p9135
aVhitler
p9136
aVhimalayan
p9137
aVconference
p9138
aVbathroom
p9139
aVseein
p9140
aVmitcheel
p9141
aVbikinis
p9142
aVropes
p9143
aVcampanelli
p9144
aVquickly
p9145
aVbeep
p9146
aVconfident
p9147
aVbeer
p9148
aVbees
p9149
aVgodamn
p9150
aVeatinngg
p9151
aVanberlin
p9152
aVdrugs
p9153
aVsyaffiazka
p9154
aVgemma
p9155
aVchipped
p9156
aVcraft
p9157
aVcatch
p9158
aVenllisted
p9159
aVteapot
p9160
aVpokerr
p9161
aVhahahahaha
p9162
aVchunker
p9163
aVkentucky
p9164
aVstrangest
p9165
aVdept
p9166
aVfallow
p9167
aVteachers
p9168
aVpenultimate
p9169
aVstopping
p9170
aVcracked
p9171
aVwinduk
p9172
aVveronica
p9173
aVpostively
p9174
aVbonne
p9175
aVexpenses
p9176
aVrapper
p9177
aVexterior
p9178
aVmaya
p9179
aVtaba
p9180
aVwenis
p9181
aVnike
p9182
aVandyhurleyday
p9183
aVniki
p9184
aVwound
p9185
aVforehead
p9186
aVcomplex
p9187
aVinventory
p9188
aVmillie
p9189
aVreffering
p9190
aVsatellite
p9191
aVsched
p9192
aVpick
p9193
aVbastard
p9194
aVraza
p9195
aVriffs
p9196
aVportal
p9197
aVcharacters
p9198
aVmentions
p9199
aVtyson
p9200
aVdozing
p9201
aVblogthings
p9202
aVshortly
p9203
aVbeatfreaks
p9204
aVcharlie
p9205
aVuploading
p9206
aVcultural
p9207
aVocean
p9208
aVsavings
p9209
aVmother
p9210
aVhearts
p9211
aVjean
p9212
aVspencer
p9213
aVdads
p9214
aVbugger
p9215
aVillana
p9216
aVlaptop
p9217
aVbruise
p9218
aVandyclemmensen
p9219
aVenlighten
p9220
aVbrokencyde
p9221
aVcherry
p9222
aVthick
p9223
aVela
p9224
aVpharmacy
p9225
aVteenager
p9226
aVdeschanel
p9227
aVhumanity
p9228
aVtrashed
p9229
aVmarifontanahello
p9230
aVbands
p9231
aVaddicts
p9232
aVreyna
p9233
aVtiziano
p9234
aVafernoon
p9235
aVnewcastle
p9236
aVsilverman
p9237
aVburns
p9238
aVburnt
p9239
aVapart
p9240
aVtwitterfon
p9241
aVmelting
p9242
aVinavertedly
p9243
aVditto
p9244
aVgift
p9245
aVfooty
p9246
aVhunt
p9247
aVvip
p9248
aVspecific
p9249
aVyaris
p9250
aVfollowes
p9251
aVavatar
p9252
aVtwitterfox
p9253
aVhung
p9254
aVwhomever
p9255
aVgifted
p9256
aVschematics
p9257
aVenvision
p9258
aVspongebob
p9259
aVexcerpt
p9260
aVjennifer
p9261
aVsponge
p9262
aVmalaysia
p9263
aVclubs
p9264
aVelection
p9265
aVtheyre
p9266
aVpigmented
p9267
aVick
p9268
aVcnt
p9269
aVich
p9270
aVexausting
p9271
aVhuzzah
p9272
aVgizzmoe
p9273
aVice
p9274
aVrhino
p9275
aVherbalife
p9276
aVicy
p9277
aVoolldd
p9278
aVirritated
p9279
aVbrekkie
p9280
aVchristmas
p9281
aVbooking
p9282
aVict
p9283
aVcord
p9284
aVcore
p9285
aVdeleted
p9286
aVcorn
p9287
aVdiscount
p9288
aVspc09
p9289
aVkalled
p9290
aVdissapointment
p9291
aVpanhandlers
p9292
aVbangalore
p9293
aVplug
p9294
aVbafta
p9295
aVmasturbations
p9296
aVshards
p9297
aVmd25
p9298
aVdinner
p9299
aVplus
p9300
aVpyl
p9301
aVcurry
p9302
aVfera
p9303
aVduke
p9304
aVaha
p9305
aVrthx
p9306
aVcivil
p9307
aVahh
p9308
aVbath
p9309
aVahs
p9310
aVbarboletta
p9311
aVbatt
p9312
aVinclusive
p9313
aVppt
p9314
aVprocrastinator
p9315
aVcafeteria
p9316
aVcubicle
p9317
aVrounds
p9318
aVgiv
p9319
aVnunes
p9320
aVsneezing
p9321
aVlools
p9322
aVtransform
p9323
aVgallery
p9324
aVgig
p9325
aVstuck
p9326
aVreli
p9327
aVlagi
p9328
aVbenchwarmers
p9329
aVnaught
p9330
aVmabye
p9331
aVrele
p9332
aVsynthesis
p9333
aVintolerance
p9334
aVhead
p9335
aVmedium
p9336
aVfolgers
p9337
aVapendicitis
p9338
aVdifferences
p9339
aVstereo
p9340
aVwireless
p9341
aVheat
p9342
aVlaurens
p9343
aVhear
p9344
aVfaders
p9345
aVremoved
p9346
aVrefreshing
p9347
aVcylinders
p9348
aVruined
p9349
aVcamaro
p9350
aVadore
p9351
aVdontyouhate
p9352
aVattn
p9353
aVzodiac
p9354
aVlsat
p9355
aVnerds
p9356
aVcamara
p9357
aVlynsies
p9358
aVshortlyy
p9359
aVshowin
p9360
aVknees
p9361
aVshinee
p9362
aVkaufman
p9363
aVsometime
p9364
aVtrix
p9365
aVdarko
p9366
aVhathor
p9367
aVannoying
p9368
aVtrip
p9369
aVnh
p9370
aVlooked
p9371
aVnj
p9372
aVnk
p9373
aVtix
p9374
aVfaithful
p9375
aVlandon
p9376
aVwhee
p9377
aVbedhead
p9378
aVna
p9379
aVnb
p9380
aVnc
p9381
aVtip
p9382
aVtis
p9383
aVtil
p9384
aVny
p9385
aVtottaly
p9386
aVsetting
p9387
aVcleme
p9388
aVwhew
p9389
aVpapers
p9390
aVnp
p9391
aVtif
p9392
aVdepot
p9393
aVnt
p9394
aVeternity
p9395
aVpicture
p9396
aVphoenix
p9397
aVsolana
p9398
aVfootball
p9399
aVshitshitshitshitshitshitshit
p9400
aVtrailers
p9401
aVblokey
p9402
aVdischarge
p9403
aVscratchy
p9404
aVbordeaux
p9405
aVtotaly
p9406
aVapologizing
p9407
aVfaster
p9408
aVbullet
p9409
aVnavel
p9410
aVfears
p9411
aVgreetings
p9412
aVlanded
p9413
aVspanked
p9414
aVvietnam
p9415
aVserious
p9416
aVstacks
p9417
aVneighbors
p9418
aVroi
p9419
aVcoach
p9420
aVrol
p9421
aVlleyton
p9422
aVrob
p9423
aVroc
p9424
aVrod
p9425
aVfocus
p9426
aVgazillion
p9427
aVparker
p9428
aVmarion
p9429
aVsra
p9430
aVrow
p9431
aVwimbly
p9432
aVenvironment
p9433
aVkiddie
p9434
aVcharge
p9435
aVtwatters
p9436
aVknackered
p9437
aVmusicmonday
p9438
aVbestp
p9439
aVagreed
p9440
aVhenderson
p9441
aVjdm
p9442
aVadvantage
p9443
aVsloppy
p9444
aVtylers
p9445
aVcook
p9446
aVcyan
p9447
aVcool
p9448
aVtortillas
p9449
aVclouds
p9450
aVhour
p9451
aVlevel
p9452
aVadorable
p9453
aVwritchat
p9454
aVpeeps
p9455
aVhawaii
p9456
aVcloudy
p9457
aVmarrying
p9458
aVquick
p9459
aVyall
p9460
aVdries
p9461
aVslower
p9462
aVporn
p9463
aVtrend
p9464
aVachilles
p9465
aVbarichello
p9466
aVvoucher
p9467
aVshandy
p9468
aVshulda
p9469
aVsubstitute
p9470
aVdrinks
p9471
aVguards
p9472
aVboats
p9473
aVstressful
p9474
aVpleasee
p9475
aVsadie
p9476
aVagrees
p9477
aVpapiseeto
p9478
aVgoes
p9479
aVreply
p9480
aVwithdrawls
p9481
aVwordcamp
p9482
aVslaying
p9483
aVwater
p9484
aVentertain
p9485
aVbaseball
p9486
aVfavoritest
p9487
aVfinalss
p9488
aVwrittle
p9489
aVthirty
p9490
aVhealthy
p9491
aVearned
p9492
aVdublin
p9493
aVbaha
p9494
aVhada
p9495
aVjed
p9496
aVexams
p9497
aVchristchurch
p9498
aVhospitality
p9499
aVweird
p9500
aVdoofcore
p9501
aVhumour
p9502
aVshopaholic
p9503
aVcoladas
p9504
aVmorale
p9505
aVmomoams
p9506
aVpeep
p9507
aVvivid
p9508
aVdolphins
p9509
aVandd
p9510
aVsports
p9511
aVwrongs
p9512
aVmsn
p9513
aVmsm
p9514
aVandy
p9515
aViphone
p9516
aVmsi
p9517
aVmemory
p9518
aVmsg
p9519
aVprev
p9520
aVtradewinds
p9521
aVchapter
p9522
aVlawns
p9523
aVchocolate
p9524
aVcasey
p9525
aVmccool
p9526
aVteaser
p9527
aVdrown
p9528
aVbeers
p9529
aVranae
p9530
aVahve
p9531
aVhassan
p9532
aVsphere
p9533
aVlocal
p9534
aVferro
p9535
aVjudy
p9536
aVrufus
p9537
aVsandbag
p9538
aVnursing
p9539
aVfigure
p9540
aVdownfall
p9541
aVnexus
p9542
aVgeeks
p9543
aVpotatos
p9544
aVmga
p9545
aVnewlook
p9546
aVtinted
p9547
aVearbud
p9548
aVunfort
p9549
aVdropped
p9550
aVanipals
p9551
aVworkin
p9552
aVcounting
p9553
aVpainkillers
p9554
aVbegn
p9555
aVdior
p9556
aVreece
p9557
aVmole
p9558
aVviendo
p9559
aVfourth
p9560
aVfireing
p9561
aVhihi
p9562
aVmichigan
p9563
aVvodafone
p9564
aVaccturly
p9565
aVirrational
p9566
aVcrashes
p9567
aVinformation
p9568
aVgranddaughter
p9569
aVrites
p9570
aVtriathlon
p9571
aVcrashed
p9572
aVbirthday
p9573
aVtunage
p9574
aVattendnt
p9575
aVnoise
p9576
aVstabbingpeople
p9577
aVunbelievably
p9578
aVcrapola
p9579
aVclassroom
p9580
aVdrained
p9581
aVsucceeded
p9582
aVbatali
p9583
aVsept
p9584
aVdevs
p9585
aVinform
p9586
aVmanana
p9587
aVtonights
p9588
aVincrease
p9589
aVfatin
p9590
aVacts
p9591
aVyashin
p9592
aVmidnight
p9593
aVdonates
p9594
aVhave2cut
p9595
aVcanara
p9596
aVworship
p9597
aVblocked
p9598
aVdreading
p9599
aVsorrii
p9600
aVevolute
p9601
aVwallace
p9602
aVgtg
p9603
aVscrolling
p9604
aVjavaone
p9605
aVolsons
p9606
aVchickadee
p9607
aVgonchar
p9608
aVmillon
p9609
aVhappened
p9610
aVlonely
p9611
aVqualifies
p9612
aVweathers
p9613
aVmoms
p9614
aVdevastated
p9615
aVgraz
p9616
aVbound
p9617
aVunderneath
p9618
aVsabai
p9619
aVcucaracha
p9620
aVhamilton
p9621
aVmomm
p9622
aVppl
p9623
aVbestest
p9624
aVterm
p9625
aVequality
p9626
aVname
p9627
aVopera
p9628
aVclutch
p9629
aVdebating
p9630
aVatown
p9631
aVrealistic
p9632
aVpicnics
p9633
aVgt4
p9634
aVgt5
p9635
aVaboutmaths
p9636
aVdonated
p9637
aVneutered
p9638
aVwirelessly
p9639
aVsprinkle
p9640
aVcatching
p9641
aVbusto
p9642
aVbegun
p9643
aVhollinworth
p9644
aVlubya
p9645
aVobsession
p9646
aVattcking
p9647
aVaccupuncture
p9648
aVintended
p9649
aVkena
p9650
aVwebcasts
p9651
aVinfuriated
p9652
aVprofit
p9653
aVayrilic
p9654
aVintnl
p9655
aVkent
p9656
aVbugging
p9657
aVbkn
p9658
aVgram
p9659
aVeagle
p9660
aVgreatnight
p9661
aVtheory
p9662
aVtempura
p9663
aVintuos
p9664
aVdispatched
p9665
aVboobs
p9666
aVhulu
p9667
aVaria
p9668
aVoasis
p9669
aVgodess
p9670
aVaccommodation
p9671
aVbreth
p9672
aVzomg
p9673
aVh1n1
p9674
aVyur
p9675
aVamma
p9676
aVyuh
p9677
aVbutterflies
p9678
aVyum
p9679
aVswine
p9680
aVswing
p9681
aVorigin
p9682
aVballpoint
p9683
aVimyy
p9684
aVcheylo
p9685
aVawfully
p9686
aVclumsy
p9687
aVgala
p9688
aVgeorge
p9689
aVactiveion
p9690
aViam
p9691
aVmarley
p9692
aVnecessarily
p9693
aVgreaat
p9694
aVvirgin
p9695
aVbuurn
p9696
aVanderson
p9697
aVstonehaven
p9698
aVbahamas
p9699
aVterrifying
p9700
aVlive360
p9701
aVlegally
p9702
aVwhite
p9703
aVburriss
p9704
aVgunadi
p9705
aVexploring
p9706
aVhug
p9707
aVshiteous
p9708
aVcope
p9709
aVseason
p9710
aVhun
p9711
aVhuh
p9712
aValam
p9713
aValan
p9714
aVhut
p9715
aVcops
p9716
aValas
p9717
aVmodule
p9718
aVcopy
p9719
aVmilton
p9720
aVwide
p9721
aVnathan
p9722
aVlmao
p9723
aVrequire
p9724
aVharrdd
p9725
aVcomputer
p9726
aVstiing
p9727
aVcards
p9728
aVpoisoning
p9729
aVpowder
p9730
aVpre
p9731
aVang
p9732
aVana
p9733
aVchloe
p9734
aVtarts
p9735
aVpro
p9736
aVanh
p9737
aVhershey
p9738
aVprk
p9739
aVscorecard
p9740
aVmates
p9741
aVsuspense
p9742
aVrent
p9743
aVans
p9744
aVtylenol
p9745
aVmarathon
p9746
aVappstore
p9747
aVconversion
p9748
aVsilhouette
p9749
aVeatathon
p9750
aVideas
p9751
aVmalta
p9752
aVtwitpics
p9753
aVwandered
p9754
aVfracture
p9755
aVblunt
p9756
aVteehee
p9757
aVpepsi
p9758
aVdlc
p9759
aVhoover
p9760
aVmultiple
p9761
aVuuse
p9762
aVurgh
p9763
aVfalls
p9764
aVboiling
p9765
aVbathes
p9766
aVmultiply
p9767
aVlibrarian
p9768
aVcleared
p9769
aVicon
p9770
aVtendon
p9771
aVrosalie
p9772
aVmurderation
p9773
aVconsidered
p9774
aVjakarta
p9775
aVnmm
p9776
aVproud
p9777
aVhungry
p9778
aVipood
p9779
aVsoho
p9780
aVuncle
p9781
aVsenior
p9782
aVbawling
p9783
aVtke
p9784
aVwooly
p9785
aVvettel
p9786
aVrecipe
p9787
aVhack
p9788
aVdundee
p9789
aVtrot
p9790
aVwoot
p9791
aVchha
p9792
aVleigh
p9793
aVfavor
p9794
aVwritten
p9795
aVcrime
p9796
aVgulp
p9797
aVstains
p9798
aVbelieving
p9799
aVchhs
p9800
aVkesc
p9801
aVhehehehhe
p9802
aVboyle
p9803
aVtayo
p9804
aVtwitterless
p9805
aVmiodnight
p9806
aVsmilinq
p9807
aVjazz
p9808
aVbegging
p9809
aVssh
p9810
aVlighter
p9811
aVdye
p9812
aVtrade
p9813
aVdya
p9814
aVfreaking
p9815
aVbeastie
p9816
aVregarding
p9817
aVflickr
p9818
aVfloods
p9819
aVdramas
p9820
aVfainted
p9821
aVnaked
p9822
aVjokes
p9823
aVpenguins
p9824
aVhahahahahhahaha
p9825
aVbought
p9826
aVdiscussing
p9827
aVcandyy
p9828
aVignored
p9829
aVgellicious
p9830
aVpicnic
p9831
aVpotomic
p9832
aVsigns
p9833
aVconnections
p9834
aVturntable
p9835
aVcollege
p9836
aVparking
p9837
aVlne
p9838
aVstanley
p9839
aVsmiling
p9840
aVwayy
p9841
aVfarmers
p9842
aVmanaging
p9843
aVreview
p9844
aVknoxville
p9845
aVcirculating
p9846
aVoutside
p9847
aVhiss
p9848
aVwayb
p9849
aVcomibg
p9850
aVarrival
p9851
aVtania
p9852
aVcomp
p9853
aVbump
p9854
aVspringyboing
p9855
aVguitar
p9856
aVfiddling
p9857
aVmultiplies
p9858
aVsupa
p9859
aVthrilling
p9860
aVbigtime
p9861
aVcities
p9862
aVfuckign
p9863
aVreaction
p9864
aVsuperstar
p9865
aVsumma
p9866
aVryanair
p9867
aVamalfi
p9868
aVquiet
p9869
aVcontract
p9870
aVcolumnist
p9871
aVberry
p9872
aVrailway
p9873
aVrabbins
p9874
aVduty
p9875
aVpakistan
p9876
aVafterwards
p9877
aVpox
p9878
aVcolor
p9879
aVpow
p9880
aVpot
p9881
aVpor
p9882
aVperiod
p9883
aVpop
p9884
aVmessin
p9885
aVpoo
p9886
aVpole
p9887
aVjammed
p9888
aVpoh
p9889
aVphnoe
p9890
aVpolo
p9891
aVbizarre
p9892
aVpoll
p9893
aVnicole
p9894
aVturkey
p9895
aVlifes
p9896
aVgoce
p9897
aVhoward
p9898
aVsocialtoo
p9899
aVscandalous
p9900
aVathon
p9901
aVgrenades
p9902
aVdeposited
p9903
aVdeclining
p9904
aVtrainler
p9905
aVhelicopter
p9906
aVconfessions
p9907
aVhardly
p9908
aVschoolboy
p9909
aVengine
p9910
aVdirection
p9911
aVparkin
p9912
aVrobbed
p9913
aVblessing
p9914
aVandrew
p9915
aVmocking
p9916
aVnusy
p9917
aVstandup
p9918
aVcareful
p9919
aVspirit
p9920
aVpilot
p9921
aVpaying
p9922
aVanyomoree
p9923
aVcash
p9924
aVprofessional
p9925
aVjiggy
p9926
aVdorks
p9927
aVshops
p9928
aVtunneling
p9929
aVpwned
p9930
aVslippers
p9931
aVpromised
p9932
aVooww
p9933
aVtrove
p9934
aVlaylael
p9935
aVembrassing
p9936
aVtelephone
p9937
aVconverts
p9938
aVsickk
p9939
aVperez
p9940
aVsippin
p9941
aVparticipant
p9942
aVauthor
p9943
aVnerded
p9944
aValphabet
p9945
aVgranted
p9946
aVnighter
p9947
aVcheck
p9948
aVshifts
p9949
aVsilvanadom24
p9950
aVhtml
p9951
aVarchineers
p9952
aVmanila
p9953
aVreminder
p9954
aVretweeting
p9955
aVevents
p9956
aVderby
p9957
aVweek
p9958
aVpersona
p9959
aVtipsy
p9960
aVni
p9961
aVdownloads
p9962
aVdriver
p9963
aVoohin
p9964
aVjeezz
p9965
aVproducers
p9966
aVaqworlds
p9967
aVcanuckss
p9968
aVtwouble
p9969
aVchanging
p9970
aVnm
p9971
aVlonging
p9972
aVfookn
p9973
aVsafely
p9974
aVrecital
p9975
aVaggro
p9976
aVrelief
p9977
aVolivia
p9978
aVmodel
p9979
aVmodem
p9980
aVtiv
p9981
aVswatched
p9982
aVkailib
p9983
aVnd
p9984
aVactress
p9985
aVoxford
p9986
aVviolent
p9987
aVkill
p9988
aVroxana
p9989
aVpolish
p9990
aVng
p9991
aVsatio
p9992
aVwala
p9993
aVblow
p9994
aVannouncement
p9995
aVaboutta
p9996
aVtim
p9997
aVrose
p9998
aVregent
p9999
aVexcept
p10000
aVblog
p10001
aVassociation
p10002
aVsamples
p10003
aVreemy
p10004
aVthatwould
p10005
aVvicodin
p10006
aVkingdom
p10007
aVmalese
p10008
aVkills
p10009
aVporto
p10010
aVsoundly
p10011
aVfridge
p10012
aVtanto
p10013
aVaccepted
p10014
aVnr
p10015
aVfurniture
p10016
aVsilverlight
p10017
aVfibromyalgia
p10018
aVdunedin
p10019
aVkennedy
p10020
aVlinesvinestryingtimes
p10021
aVbuddies
p10022
aVbracelet
p10023
aVmanalo
p10024
aVtower
p10025
aVcrzy
p10026
aVcurlywurlies
p10027
aVcryiing
p10028
aVrammstein
p10029
aVjoking
p10030
aVoverheated
p10031
aVcompetition
p10032
aVtable
p10033
aVprovided
p10034
aVslice
p10035
aVmood
p10036
aVmicro
p10037
aVfrees
p10038
aVlongboard
p10039
aVluxembourg
p10040
aVmoon
p10041
aVnutty
p10042
aVprovider
p10043
aVquitting
p10044
aVtxting
p10045
aVlmfao
p10046
aVnails
p10047
aVcommunicate
p10048
aVslaughter
p10049
aVpiccy
p10050
aVterrified
p10051
aVhightlights
p10052
aVoo
p10053
aVom
p10054
aVaannd
p10055
aVok
p10056
aVoj
p10057
aVoi
p10058
aVod
p10059
aVoc
p10060
aVshrimp
p10061
aVpistachio
p10062
aVstand
p10063
aVow
p10064
aVnaow
p10065
aVot
p10066
aVos
p10067
aVcudi
p10068
aVdennys
p10069
aVamber
p10070
aVtribe
p10071
aVladies
p10072
aVcurses
p10073
aVgard
p10074
aVwahai
p10075
aVaccounts
p10076
aVartur
p10077
aVburton
p10078
aVdaywalker
p10079
aVyar
p10080
aVnescafe
p10081
aVehe
p10082
aVracist
p10083
aVbude
p10084
aVvalley
p10085
aVfish
p10086
aVehh
p10087
aVhindi
p10088
aVatack
p10089
aVkittens
p10090
aVlavve
p10091
aVregard
p10092
aVjun
p10093
aVspose
p10094
aVamongst
p10095
aVcabinet
p10096
aVsemangat
p10097
aVjus
p10098
aVslessard
p10099
aVquwheel
p10100
aVatacp
p10101
aVpromote
p10102
aVparrents
p10103
aVflats
p10104
aVgrass
p10105
aVdjing
p10106
aVstrongly
p10107
aVtoilet
p10108
aVcba
p10109
aVumad
p10110
aVcinema
p10111
aVcbj
p10112
aVkiteboarders
p10113
aVminneapolis
p10114
aVbritain
p10115
aVtasty
p10116
aVspendy
p10117
aVaces
p10118
aVpolitics
p10119
aVadsl
p10120
aVspends
p10121
aVhasnt
p10122
aVheather
p10123
aVpurdy
p10124
aVidiot
p10125
aVdeserve
p10126
aVdiarrhea
p10127
aVol
p10128
aVregents
p10129
aVbesos
p10130
aVtrash
p10131
aVrequested
p10132
aVbriefly
p10133
aVchampionship
p10134
aVrehersing
p10135
aVpillows
p10136
aVseparate
p10137
aVspoilers
p10138
aVtopshop
p10139
aVfinale
p10140
aVkolby
p10141
aVcarnegie
p10142
aVincludes
p10143
aVflower
p10144
aVbullets
p10145
aVincluded
p10146
aVfinals
p10147
aVmissed
p10148
aVsubcribe
p10149
aVbooked
p10150
aVmawkef
p10151
aVwiff
p10152
aVernie
p10153
aVcalls
p10154
aVwife
p10155
aVodds
p10156
aVwifi
p10157
aVcurve
p10158
aVwebsites
p10159
aVsuppossed
p10160
aVtwitterberry
p10161
aVapparel
p10162
aVrimmel
p10163
aVhmmp
p10164
aVchinese
p10165
aVali
p10166
aVdisz
p10167
aVlack
p10168
aVabit
p10169
aVngpn
p10170
aVdejame
p10171
aVjhatka
p10172
aVgr8conf
p10173
aVstuding
p10174
aVdish
p10175
aVfollow
p10176
aVmeditation
p10177
aVdisk
p10178
aValr
p10179
aVapartment
p10180
aVcatastrophe
p10181
aVlining
p10182
aVwassup
p10183
aVacting
p10184
aVthursday
p10185
aVthursdag
p10186
aVaaron
p10187
aVprogram
p10188
aVdairy
p10189
aVsiblings
p10190
aVmileey
p10191
aVpresentation
p10192
aVcelebs
p10193
aVreggie
p10194
aVwoman
p10195
aVunsatisfying
p10196
aVworse
p10197
aVsolen
p10198
aVsong
p10199
aVfav
p10200
aVfat
p10201
aVouch
p10202
aVsimpsons
p10203
aVprint
p10204
aVwondeful
p10205
aVsons
p10206
aVworst
p10207
aVsnapdragons
p10208
aVfab
p10209
aVsony
p10210
aVbubbles
p10211
aVticker
p10212
aVoffline
p10213
aVtreating
p10214
aVlist
p10215
aVftl
p10216
aVtipsyness
p10217
aVsaxophone
p10218
aVlesbians
p10219
aVbooting
p10220
aVlisa
p10221
aVmtvv
p10222
aVteh
p10223
aVentourage
p10224
aVarthw
p10225
aVten
p10226
aVtea
p10227
aVrobyn
p10228
aVtwitterific
p10229
aVrate
p10230
aVdesign
p10231
aVnbc
p10232
aVnba
p10233
aVhossak
p10234
aVpads
p10235
aVsue
p10236
aVsub
p10237
aVdeeply
p10238
aVsum
p10239
aVticks
p10240
aVackroyd
p10241
aVoverload
p10242
aVguna
p10243
aVcrush
p10244
aVversion
p10245
aVsup
p10246
aVwome
p10247
aVlement
p10248
aVracing
p10249
aVsux
p10250
aVtoes
p10251
aVchristian
p10252
aVrelationships
p10253
aVnene
p10254
aVnaptime
p10255
aVhungover
p10256
aVtheresa
p10257
aVgolfball
p10258
aVretraining
p10259
aVandrews
p10260
aVrelaxation
p10261
aVequations
p10262
aVshoulda
p10263
aVgeared
p10264
aVdifficulty
p10265
aVsupplements
p10266
aVspankie
p10267
aVcamcorder
p10268
aVbeliev
p10269
aVsticking
p10270
aVthankfully
p10271
aVsnus
p10272
aVsuddenly
p10273
aVscreens
p10274
aVtexts
p10275
aVsemester
p10276
aVtextt
p10277
aVvertebrae
p10278
aVflorence
p10279
aVddub
p10280
aVmunchies
p10281
aVdonuts
p10282
aVfaint
p10283
aVshity
p10284
aVteleconference
p10285
aVjournies
p10286
aVshits
p10287
aVpromoting
p10288
aVminor
p10289
aVhorses
p10290
aVtryna
p10291
aVisrael
p10292
aVmiri
p10293
aVyaha
p10294
aVgrabbing
p10295
aVbottle
p10296
aVowners
p10297
aVantibiotics
p10298
aVfloyd
p10299
aVstick
p10300
aVbenefits
p10301
aVglad
p10302
aVmirs
p10303
aVjim
p10304
aVsptechcon
p10305
aVbeehh
p10306
aVfinland
p10307
aVembarrassing
p10308
aVjoints
p10309
aVsunscreen
p10310
aVcompetion
p10311
aVpong
p10312
aVoffspring
p10313
aVchores
p10314
aVcourt
p10315
aVgoal
p10316
aVaahh
p10317
aVoyu
p10318
aVbreaking
p10319
aVoccasionally
p10320
aVstemming
p10321
aVspeeding
p10322
aVshouldnt
p10323
aVokay
p10324
aVantebellum
p10325
aVcancun
p10326
aVpalmers
p10327
aVokai
p10328
aVadventure
p10329
aVnumb
p10330
aVsoftball
p10331
aVbahaha
p10332
aVshort
p10333
aVlhc
p10334
aVsusan
p10335
aVdeparture
p10336
aVtrevor
p10337
aVfestt
p10338
aVshade
p10339
aVardy
p10340
aVtweeterhoes
p10341
aVseptember
p10342
aVdeveloped
p10343
aVbrotha
p10344
aVentries
p10345
aVmission
p10346
aVdisabled
p10347
aVhatted
p10348
aVisnt
p10349
aVcheezburger
p10350
aVairing
p10351
aVdeveloper
p10352
aVstyle
p10353
aVprat
p10354
aVglide
p10355
aVpray
p10356
aVsale
p10357
aVbeyonce
p10358
aVmattress
p10359
aVresort
p10360
aVriks
p10361
aVstephen
p10362
aVspeaker
p10363
aVargentina
p10364
aVsoccer
p10365
aVsinistercupcake
p10366
aVreturn
p10367
aVsucking
p10368
aVniice
p10369
aVpingpong
p10370
aVunusable
p10371
aVorry
p10372
aVficar
p10373
aVturny
p10374
aVcommunities
p10375
aVmengurangi
p10376
aVbigger
p10377
aVcouches
p10378
aVmarcus
p10379
aVaftershow
p10380
aVrefresh
p10381
aVhahahaahhaa
p10382
aVmastered
p10383
aVdifficult
p10384
aVfriendship
p10385
aVphilippines
p10386
aVpirates
p10387
aVweight
p10388
aVneedless
p10389
aVbrothes
p10390
aVomjesus
p10391
aVnytes
p10392
aVloopy
p10393
aVexpect
p10394
aVtwtter
p10395
aVslave
p10396
aVinflated
p10397
aVprolly
p10398
aValcohol
p10399
aVwondered
p10400
aVlolo
p10401
aVhydraulic
p10402
aVloll
p10403
aVlols
p10404
aVcommemorative
p10405
aVhealth
p10406
aVhill
p10407
aVtweetdeck
p10408
aVlolz
p10409
aVbenjamin
p10410
aVfiber
p10411
aVblaring
p10412
aVfriday
p10413
aVforgive
p10414
aVcollab
p10415
aVexperimenting
p10416
aVcookie
p10417
aVreconfigure
p10418
aVteach
p10419
aVsidewalk
p10420
aVthrown
p10421
aVthread
p10422
aVcraigs
p10423
aVconcept
p10424
aVwlm
p10425
aVcircuit
p10426
aVprecal
p10427
aVsnowboarding
p10428
aVfallen
p10429
aVthrows
p10430
aVfeed
p10431
aVdine
p10432
aVstudent
p10433
aVfeel
p10434
aVsydney
p10435
aVpork
p10436
aVfancy
p10437
aVfeet
p10438
aVsympathy
p10439
aVsailor
p10440
aVdint
p10441
aVdins
p10442
aVcolombia
p10443
aVpablo
p10444
aVbland
p10445
aVfederer
p10446
aVpasses
p10447
aVstory
p10448
aVwisecrack
p10449
aVtemperature
p10450
aVscript
p10451
aVgourmet
p10452
aVleading
p10453
aVinterviews
p10454
aVdrinkk
p10455
aVcomfy
p10456
aVlobby
p10457
aVniah
p10458
aVstorm
p10459
aVhangg
p10460
aVsyrup
p10461
aVphotographing
p10462
aVrecovered
p10463
aVheadache
p10464
aVoption
p10465
aVparklife
p10466
aVexploded
p10467
aVhotel
p10468
aVeverglades
p10469
aVluckily
p10470
aVscince
p10471
aVconvinced
p10472
aValbeit
p10473
aVfruitie
p10474
aVreaally
p10475
aVkina
p10476
aVdouble
p10477
aVkink
p10478
aVoutrageous
p10479
aVdann
p10480
aVcicero
p10481
aVstalk
p10482
aVdoubly
p10483
aVdani
p10484
aVdang
p10485
aVdane
p10486
aVclements
p10487
aVdmb
p10488
aVdried
p10489
aVtongues
p10490
aVcleaner
p10491
aVmotivation
p10492
aVgals
p10493
aVdepleted
p10494
aVcleaned
p10495
aVfiona
p10496
aVmidsommar
p10497
aVnights
p10498
aVnightt
p10499
aVyeahs
p10500
aVport
p10501
aVparece
p10502
aVsandwiches
p10503
aVyeahh
p10504
aVfinding
p10505
aVhurling
p10506
aVbaka
p10507
aVtousled
p10508
aVadded
p10509
aVelectric
p10510
aVreckon
p10511
aVreach
p10512
aVjst
p10513
aVcigarette
p10514
aVunsub
p10515
aVseasons
p10516
aVaddey
p10517
aVappear
p10518
aVsurf
p10519
aVdealers
p10520
aVwindows
p10521
aVdoggie
p10522
aVsaloon
p10523
aVlying
p10524
aVparr
p10525
aVstones
p10526
aVsurg
p10527
aVhi5
p10528
aVfone
p10529
aVfond
p10530
aVstfu
p10531
aVbonville
p10532
aVhavoc
p10533
aVcds
p10534
aVhuurts
p10535
aVetsy
p10536
aVbff
p10537
aVcanaria
p10538
aVbfs
p10539
aVhip
p10540
aVpengen
p10541
aVhit
p10542
aVtommorow
p10543
aVblank
p10544
aVhid
p10545
aVfastest
p10546
aVhii
p10547
aVbeards
p10548
aVbanquet
p10549
aVjeje
p10550
aVbudapest
p10551
aVsources
p10552
aVerrends
p10553
aVbrendan
p10554
aVeyetv
p10555
aVinvestigate
p10556
aVli
p10557
aVcartoons
p10558
aVpaintin
p10559
aVberjam
p10560
aVdefendi
p10561
aVwrote
p10562
aVideea
p10563
aVart
p10564
aVachieved
p10565
aVdayss
p10566
aVdefense
p10567
aVdumb
p10568
aVvocal
p10569
aVari
p10570
aVcheerios
p10571
aVark
p10572
aVtiffanys
p10573
aVarm
p10574
aVbarn
p10575
aVyouth
p10576
aVlearnt
p10577
aVinge
p10578
aVuser
p10579
aVnutella
p10580
aVformatted
p10581
aVups
p10582
aVcrisp
p10583
aVichat
p10584
aVconsecutive
p10585
aVhairs
p10586
aVwatchin
p10587
aVsolo
p10588
aVpaisley
p10589
aVlatin
p10590
aVrecently
p10591
aVcreating
p10592
aVsold
p10593
aVattention
p10594
aVwohoo
p10595
aVoutfit
p10596
aVmaxwells
p10597
aVcondo
p10598
aVprelude
p10599
aVconrol
p10600
aVprescription
p10601
aVlicense
p10602
aVmovers
p10603
aVpete
p10604
aVnamin
p10605
aVroman
p10606
aVannie
p10607
aVbond
p10608
aVrollers
p10609
aVflies
p10610
aVtgu
p10611
aVreasons
p10612
aVsweet
p10613
aVdudes
p10614
aVnipping
p10615
aVdudee
p10616
aVfibres
p10617
aVslots
p10618
aVcrispy
p10619
aVsultanas
p10620
aVpr
p10621
aVps
p10622
aVjava
p10623
aVdum
p10624
aVpt
p10625
aVswe
p10626
aVdue
p10627
aVcbbc
p10628
aVstrategy
p10629
aVpc
p10630
aVpa
p10631
aVnother
p10632
aVpd
p10633
aVpj
p10634
aVpk
p10635
aVpn
p10636
aVpo
p10637
aVwoke
p10638
aVpm
p10639
aVflight
p10640
aVspiffingly
p10641
aVcept
p10642
aVslideshow
p10643
aVcinco
p10644
aVvaguely
p10645
aVdemand
p10646
aVonamission
p10647
aVincoming
p10648
aVrocking
p10649
aVinstructor
p10650
aVplants
p10651
aVstolen
p10652
aVfrozen
p10653
aVahah
p10654
aVbatch
p10655
aVhomework
p10656
aVbehavior
p10657
aVfernandez
p10658
aVtheres
p10659
aVfightn
p10660
aVguilty
p10661
aVstys
p10662
aVrip
p10663
aVrin
p10664
aVrio
p10665
aVobstacle
p10666
aVdeneuve
p10667
aVhahahahhahahahah
p10668
aVrid
p10669
aVethnicity
p10670
aVpeoplee
p10671
aVconfirms
p10672
aVcroyde
p10673
aVshirt
p10674
aVlengths
p10675
aVtothe
p10676
aVwierd
p10677
aVitchy
p10678
aVspears
p10679
aVdaughters
p10680
aVcinnamon
p10681
aVcnceled
p10682
aVarrives
p10683
aVtribalism
p10684
aVpaths
p10685
aVpainless
p10686
aVcement
p10687
aVholidays
p10688
aVdomains
p10689
aVustream
p10690
aVflown
p10691
aVmoving
p10692
aVwheres
p10693
aVlower
p10694
aVfcra
p10695
aVcheek
p10696
aVchickens
p10697
aVeyeko
p10698
aVcheer
p10699
aVedge
p10700
aVinspirational
p10701
aVdares
p10702
aVdoggies
p10703
aVsumat
p10704
aVpollen
p10705
aVpresume
p10706
aVreliant
p10707
aVpolled
p10708
aVepcot
p10709
aVquestions
p10710
aVfilesharing
p10711
aVprince
p10712
aVversino
p10713
aVtables
p10714
aVloading
p10715
aVlaics
p10716
aVnearby
p10717
aVcontractor
p10718
aVcustomers
p10719
aVure
p10720
aVdvds
p10721
aVsittin
p10722
aVunlimited
p10723
aVlovin
p10724
aVashleys
p10725
aVboost
p10726
aVkasi
p10727
aVseactaine
p10728
aVmoody
p10729
aVmariah
p10730
aVmessage
p10731
aVarthur
p10732
aVessential
p10733
aVhometh
p10734
aVfucking
p10735
aVloudd
p10736
aVulcers
p10737
aVunderstood
p10738
aVcandy
p10739
aVroti
p10740
aVlouboutin
p10741
aVlizzy
p10742
aVtehehe
p10743
aVprop
p10744
aVmeds
p10745
aVlorraine
p10746
aVinnovation
p10747
aVstrategerizing
p10748
aVanne
p10749
aVlappy
p10750
aVprob
p10751
aVanna
p10752
aVrestarants
p10753
aVjumps
p10754
aVkelsey
p10755
aVrefused
p10756
aVzombie
p10757
aVjeheez
p10758
aVintense
p10759
aVrussell
p10760
aVpipeline
p10761
aVmasquito
p10762
aVelora
p10763
aVhousekeeping
p10764
aVvolunteering
p10765
aVcompleting
p10766
aVbrooklyn
p10767
aVwhuan
p10768
aVrange
p10769
aVfantasic
p10770
aVwanna
p10771
aVdwight
p10772
aVmuzak
p10773
aVauntie
p10774
aVmommy
p10775
aVmustached
p10776
aVmomma
p10777
aVloove
p10778
aVplaisir
p10779
aVsej001
p10780
aVstitches
p10781
aVcanal
p10782
aVimpressed
p10783
aVeyecandy
p10784
aVrows
p10785
aVpabs
p10786
aVquestion
p10787
aVcuticle
p10788
aVminisink
p10789
aVfash
p10790
aVpap
p10791
aVsummertime
p10792
aVholliwood
p10793
aVvienna
p10794
aVfiles
p10795
aVmountains
p10796
aVloadss
p10797
aVtwhfaces
p10798
aVraisins
p10799
aVgiggling
p10800
aVgirlfriends
p10801
aVcloth
p10802
aVforwards
p10803
aVstrictly
p10804
aVdelta
p10805
aVmohawked
p10806
aVbeaufort
p10807
aVpenguin
p10808
aVsathurday
p10809
aVfries
p10810
aVstalking
p10811
aVfrien
p10812
aVhighlight
p10813
aVfried
p10814
aVcalled
p10815
aVsunnies
p10816
aVwakin
p10817
aVfreak
p10818
aVnikkas
p10819
aVhedwig
p10820
aVpinkys
p10821
aVcleveland
p10822
aVcoordinator
p10823
aVwarning
p10824
aVelnoor
p10825
aVrally
p10826
aVgraham
p10827
aVrainbow
p10828
aVrainy
p10829
aVgrr
p10830
aVtentative
p10831
aVrains
p10832
aVmalicious
p10833
aVnick
p10834
aVstadthalle
p10835
aVtrekky
p10836
aVnico
p10837
aVincome
p10838
aVabducted
p10839
aVmock
p10840
aVnice
p10841
aVpills
p10842
aVnoche
p10843
aVusers
p10844
aVjanella
p10845
aVmissin
p10846
aVmcmahaon
p10847
aVhelping
p10848
aVmeaning
p10849
aVpuncture
p10850
aVposters
p10851
aVbcoz
p10852
aVviscount
p10853
aVremix
p10854
aVhappier
p10855
aVvice
p10856
aVgr8
p10857
aVbulletin
p10858
aVimpatient
p10859
aVwaxing
p10860
aVweights
p10861
aVkarma
p10862
aVnash
p10863
aVjoining
p10864
aVscroll
p10865
aVwrestle
p10866
aVwolford
p10867
aValien
p10868
aVwindy
p10869
aVchattyy
p10870
aVgang
p10871
aVwinds
p10872
aVreconfiguring
p10873
aVissues
p10874
aVsimon
p10875
aVitll
p10876
aVlanguages
p10877
aVsinigang
p10878
aVihsaehihaeiuhe
p10879
aVsoiree
p10880
aVinclude
p10881
aVwaiters
p10882
aVoverlaps
p10883
aVfamily
p10884
aVbreathing
p10885
aVwished
p10886
aVtoenail
p10887
aVharlod
p10888
aVging
p10889
aVagua
p10890
aVspoon
p10891
aVwishes
p10892
aVawsoommee
p10893
aVhugging
p10894
aVslogan
p10895
aVdrinking
p10896
aVharlow
p10897
aVsuckaa
p10898
aVfremantle
p10899
aVnotes
p10900
aVibang
p10901
aVleader
p10902
aVdeals
p10903
aVcongrats
p10904
aVsettlers
p10905
aVclaudia
p10906
aVsomeday
p10907
aVgoodies
p10908
aVpoets
p10909
aVgoodiez
p10910
aVfold
p10911
aVtraveling
p10912
aVcoltons
p10913
aVfolo
p10914
aVhopped
p10915
aVfolk
p10916
aVlaammee
p10917
aVuniversities
p10918
aVunavailable
p10919
aVkris
p10920
aVscreenshots
p10921
aVwanker
p10922
aVwaiting
p10923
aVattire
p10924
aVchose
p10925
aVdegree
p10926
aVticketmaster
p10927
aVpushing
p10928
aVunderwood
p10929
aVdesired
p10930
aVgloat
p10931
aVsexy
p10932
aVlalake
p10933
aVminipig
p10934
aVsilkies
p10935
aVmetro
p10936
aVshades
p10937
aVleaving
p10938
aVhelpers
p10939
aVworthiest
p10940
aVnatasha
p10941
aVfinsihed
p10942
aVsuprising
p10943
aVvole
p10944
aVapple
p10945
aVscales
p10946
aVegypt
p10947
aVoveremotional
p10948
aVapp
p10949
aVshoved
p10950
aVhardd
p10951
aVtwitterlers
p10952
aVapt
p10953
aVduck
p10954
aVfed
p10955
aVfee
p10956
aVfeb
p10957
aVusb
p10958
aVusa
p10959
aViced
p10960
aVuso
p10961
aVuugghh
p10962
aVjessee
p10963
aVprocrastinate
p10964
aVgnite
p10965
aVexpanding
p10966
aVtimetable
p10967
aVfez
p10968
aVkya
p10969
aVsort
p10970
aVporch
p10971
aVgabba
p10972
aVmusician
p10973
aVimpress
p10974
aVinfection
p10975
aVsore
p10976
aVrabbit
p10977
aVgrea
p10978
aVwomen
p10979
aVbridesmaid
p10980
aVprjct
p10981
aVskydiving
p10982
aVawesokme
p10983
aVcritic
p10984
aVaight
p10985
aVonsdag
p10986
aVbiscuit
p10987
aVproof
p10988
aVtat
p10989
aVbittersweet
p10990
aVwrkin
p10991
aVdistractions
p10992
aVproprietary
p10993
aVspn
p10994
aVthirsty
p10995
aVmowing
p10996
aVrapp
p10997
aVtax
p10998
aVtad
p10999
aVtae
p11000
aVtag
p11001
aVhilton
p11002
aVchic
p11003
aVtan
p11004
aVtao
p11005
aVonions
p11006
aVsocnoc
p11007
aVrape
p11008
aVsis
p11009
aVsummers
p11010
aVunited
p11011
aVsit
p11012
aVsix
p11013
aVpoophead
p11014
aVmorrning
p11015
aVfortunate
p11016
aVbrian
p11017
aVswear
p11018
aVcamilla
p11019
aVbark
p11020
aVsid
p11021
aVinstead
p11022
aVdwi
p11023
aVpanic
p11024
aVsin
p11025
aVsim
p11026
aVtypewriter
p11027
aVmassages
p11028
aVtension
p11029
aVwhaddup
p11030
aVcupboard
p11031
aVattend
p11032
aVabuse
p11033
aVtaco
p11034
aVhahahaha
p11035
aVtweetlater
p11036
aVdaycare
p11037
aVlight
p11038
aVstraps
p11039
aVsayher
p11040
aVhonestly
p11041
aVscrubs
p11042
aVcrawling
p11043
aVnecklace
p11044
aVehem
p11045
aVeheh
p11046
aVmartini
p11047
aVstamped
p11048
aVbecusz
p11049
aVwhilst
p11050
aVdearest
p11051
aVlooks
p11052
aVquake
p11053
aVcommendation
p11054
aVmafe
p11055
aVxoxox
p11056
aVlounge
p11057
aVchoosy
p11058
aVglee
p11059
aVtyler
p11060
aVchoose
p11061
aVorange
p11062
aVcovered
p11063
aVholiday
p11064
aVcrowds
p11065
aVpending
p11066
aVyesterdayy
p11067
aVflex
p11068
aVcrash
p11069
aVbket
p11070
aVflour
p11071
aVpractice
p11072
aVmoosik
p11073
aVflew
p11074
aVferguson
p11075
aVsnoopy
p11076
aVarticles
p11077
aVchekk
p11078
aVprofound
p11079
aVedit
p11080
aVnfl
p11081
aVfeast
p11082
aVbilly
p11083
aVrockets
p11084
aVworldd
p11085
aVbills
p11086
aVerratic
p11087
aVbentley
p11088
aVboobear
p11089
aVartists
p11090
aViheartsyouharderlikewhoa
p11091
aVrelated
p11092
aVbogey
p11093
aVakmal
p11094
aVftiaksw
p11095
aVnigtmare
p11096
aVconsecutively
p11097
aVsnorkeling
p11098
aVblues
p11099
aVcpsia
p11100
aVchaos
p11101
aVgrits
p11102
aVtriplyksis
p11103
aVsweeney
p11104
aVipoh
p11105
aVipod
p11106
aVnuit
p11107
aVpromptly
p11108
aVvai
p11109
aVwagamama
p11110
aVyork
p11111
aVsabre
p11112
aVphilip
p11113
aVlts
p11114
aVcomrade
p11115
aVcait
p11116
aVorganic
p11117
aVblogpost
p11118
aVconversation
p11119
aVhence
p11120
aVbiting
p11121
aVfrosties
p11122
aVcinderella
p11123
aVindesign
p11124
aVecho
p11125
aVtwat
p11126
aVtrenches
p11127
aVtwas
p11128
aVusesnow
p11129
aVrigh
p11130
aVgigging
p11131
aVmyspace
p11132
aVpriority
p11133
aVpotty
p11134
aVerands
p11135
aVamen
p11136
aVkellys
p11137
aVshell
p11138
aVshelf
p11139
aVjuli
p11140
aVshallow
p11141
aVaarrgghh
p11142
aVregards
p11143
aVbaptized
p11144
aVjuly
p11145
aVcommence
p11146
aVsummoning
p11147
aVboring
p11148
aVlion
p11149
aVenought
p11150
aVpatients
p11151
aVmoto
p11152
aVfavmoviequote
p11153
aVdrumsticks
p11154
aVdusty
p11155
aVyodel
p11156
aVfowa
p11157
aVclip
p11158
aVcohen
p11159
aVteenagers
p11160
aVblip
p11161
aValwys
p11162
aVsuns
p11163
aVdelineated
p11164
aVlinked
p11165
aVunbearable
p11166
aVafraid
p11167
aVallergies
p11168
aVoozing
p11169
aVagency
p11170
aVanglo
p11171
aVbagel
p11172
aVreactions
p11173
aVyuk
p11174
aVasshole
p11175
aVmothershop
p11176
aVunbearably
p11177
aVsallys
p11178
aVbitches
p11179
aVcentre
p11180
aVpetrol
p11181
aVlamee
p11182
aVwhn
p11183
aVwht
p11184
aVcracking
p11185
aVhighschool
p11186
aVgiugiu
p11187
aVclass
p11188
aVmicrobio
p11189
aVrainning
p11190
aVdeny
p11191
aVbarista
p11192
aVhk
p11193
aVpipe
p11194
aVdenn
p11195
aVmybe
p11196
aVmifune
p11197
aVcorrespondants
p11198
aVho
p11199
aVtwitting
p11200
aVexclusive
p11201
aVelectoral
p11202
aVstove
p11203
aVchapters
p11204
aVplanning
p11205
aVniet
p11206
aVutter
p11207
aVchicken
p11208
aVeyes
p11209
aVdebate
p11210
aVchanced
p11211
aVfilmed
p11212
aVmumbai
p11213
aVasterix
p11214
aVcodrydamol
p11215
aVcombi
p11216
aVlemme
p11217
aVbogged
p11218
aVcombo
p11219
aVpiano
p11220
aVthousands
p11221
aVawwe
p11222
aVcube
p11223
aVfabulous
p11224
aVonee
p11225
aVwatching
p11226
aVdope
p11227
aVmassacre
p11228
aVawwh
p11229
aVones
p11230
aVcubs
p11231
aVwords
p11232
aVpresley
p11233
aVchips
p11234
aVrite
p11235
aVchampagne
p11236
aVbelts
p11237
aVaandy
p11238
aVmarried
p11239
aVkewlest
p11240
aVlaporte
p11241
aVfuturistic
p11242
aVview
p11243
aVeurope
p11244
aVtuloy
p11245
aVpoitiers
p11246
aVartsy
p11247
aVgahh
p11248
aVvanah
p11249
aVspazzing
p11250
aVsignalnoise
p11251
aVbarrels
p11252
aVgutters
p11253
aVcloser
p11254
aVcole
p11255
aVcloset
p11256
aVmeatballs
p11257
aVtrainor
p11258
aVno1
p11259
aVgenius
p11260
aVclosed
p11261
aVstories
p11262
aVlostprophets
p11263
aVfrustrated
p11264
aVspeed
p11265
aVpants
p11266
aVexam
p11267
aVtrynna
p11268
aVjow
p11269
aVjoy
p11270
aVduane
p11271
aVamex
p11272
aVjob
p11273
aVapes
p11274
aVhypothesis
p11275
aVjoe
p11276
aVjog
p11277
aVhomebrew
p11278
aVstutters
p11279
aVswift
p11280
aVjon
p11281
aVpeggle
p11282
aVcommands
p11283
aVonlining
p11284
aVsubscirbee
p11285
aVapril
p11286
aVtweetups
p11287
aVatleast
p11288
aVbronx
p11289
aVmacbooking
p11290
aVhehehe
p11291
aVdisenfranchised
p11292
aVwall
p11293
aVmakin
p11294
aVwalk
p11295
aVpackaging
p11296
aVrpg
p11297
aVtwilght
p11298
aVrespect
p11299
aVnarrowed
p11300
aVsheeps
p11301
aVelectrocardiogram
p11302
aVbbm
p11303
aVcavities
p11304
aVdecent
p11305
aVbbe
p11306
aVgrindstone
p11307
aVbbc
p11308
aVurijah
p11309
aVtutor
p11310
aVoffers
p11311
aVikm
p11312
aVbby
p11313
aVbbw
p11314
aVbbq
p11315
aVremedies
p11316
aVmike
p11317
aVliverpool
p11318
aVverizon
p11319
aVpainted
p11320
aVhmv
p11321
aVjaded
p11322
aVspammer
p11323
aVcrappy
p11324
aVhmm
p11325
aVbursaries
p11326
aVpanel
p11327
aVhme
p11328
aVtwist
p11329
aVabandoned
p11330
aVunlike
p11331
aVsaid150yrs
p11332
aVvanilla
p11333
aVvicki
p11334
aVdivorce
p11335
aVchoices
p11336
aVstunning
p11337
aVwild
p11338
aVmunchin
p11339
aVsuckeer
p11340
aVeii
p11341
aVwhors
p11342
aVicanhascb
p11343
aVkyles
p11344
aVencouragement
p11345
aVavl
p11346
aVbumcakes
p11347
aVsnuck
p11348
aVavg
p11349
aVwhore
p11350
aVnoi
p11351
aVuqh
p11352
aVdels
p11353
aVcross
p11354
aVunderwhelmed
p11355
aVjenna
p11356
aVlargest
p11357
aVinch
p11358
aVhippos
p11359
aVgnight
p11360
aVtomatoes
p11361
aVhammering
p11362
aVpussycat
p11363
aVtwitterbots
p11364
aVscams
p11365
aVpromo
p11366
aVspecator
p11367
aVdefinately
p11368
aVhydroxyzine
p11369
aVdiploma
p11370
aVcoaches
p11371
aVwathin
p11372
aVprfect
p11373
aVyoou
p11374
aVcollar
p11375
aVwarming
p11376
aVarse
p11377
aVantsy
p11378
aVlukes
p11379
aVingredients
p11380
aVbanging
p11381
aVfighting
p11382
aVelsroor
p11383
aVpremiership
p11384
aVgutted
p11385
aVenglish
p11386
aVrealised
p11387
aVnadal
p11388
aVcried
p11389
aVfrikkin
p11390
aVpercent
p11391
aVwealthy
p11392
aVcries
p11393
aVmighty
p11394
aVrachels
p11395
aVfishing
p11396
aVrocked
p11397
aVtautou
p11398
aVillinois
p11399
aVlettuce
p11400
aVtcc
p11401
aVhappiness
p11402
aVtca
p11403
aVnicky
p11404
aVdrunk
p11405
aVsmith
p11406
aVnickj
p11407
aVnicki
p11408
aVadoption
p11409
aVnicko
p11410
aVroflcopter
p11411
aVearthquakes
p11412
aVtizzy
p11413
aVsick
p11414
aVmyth
p11415
aVknoe
p11416
aVmasih
p11417
aVknot
p11418
aVpress
p11419
aVredesign
p11420
aVrofl
p11421
aVtecates
p11422
aVneda
p11423
aVahem
p11424
aVmiami
p11425
aVloser
p11426
aVloses
p11427
aVjanuary
p11428
aVabso
p11429
aVkawasaki
p11430
aVforgood
p11431
aVwonders
p11432
aVstav
p11433
aVnigga
p11434
aVsmoothly
p11435
aVelevators
p11436
aVscared
p11437
aVsearching
p11438
aVtera
p11439
aVvicarious
p11440
aVwaheyy
p11441
aVgables
p11442
aVleaf
p11443
aVlead
p11444
aVlean
p11445
aVmines
p11446
aVmarkers
p11447
aVdetergent
p11448
aVwhereas
p11449
aVearrings
p11450
aVnoosa
p11451
aVpasty
p11452
aVripped
p11453
aVmurderer
p11454
aVrealise
p11455
aVtwitterbugss
p11456
aVschocked
p11457
aVslut
p11458
aVwesley
p11459
aVmite
p11460
aVpaste
p11461
aVslue
p11462
aVpike
p11463
aVrare
p11464
aVcarried
p11465
aVextension
p11466
aVgetting
p11467
aVsmalltown
p11468
aVuniverse
p11469
aVspilled
p11470
aVnde
p11471
aVfear
p11472
aVcamels
p11473
aVsweat
p11474
aVwheats
p11475
aVsaddens
p11476
aVperky
p11477
aVtgif
p11478
aVwarranty
p11479
aVowl
p11480
aVown
p11481
aVmraz
p11482
aVkinda
p11483
aVowe
p11484
aVtailgate
p11485
aVloner
p11486
aVcaedmon
p11487
aVfundraiser
p11488
aVweather
p11489
aVpromise
p11490
aVdoodled
p11491
aVowt
p11492
aVoww
p11493
aVwxnp
p11494
aVanwser
p11495
aVnuke
p11496
aVvan
p11497
aVval
p11498
aVtransfer
p11499
aVappt
p11500
aVapps
p11501
aVnlworship
p11502
aVfeat
p11503
aVkidding
p11504
aVrockstars
p11505
aVhiccups
p11506
aVthiss
p11507
aVvar
p11508
aVvas
p11509
aVappa
p11510
aVkane
p11511
aVlimo
p11512
aVtriggered
p11513
aVshane
p11514
aVfunds
p11515
aVhollyoaks
p11516
aVshana
p11517
aVjerrys
p11518
aVhsm3
p11519
aVmailed
p11520
aVgranny
p11521
aVchallenges
p11522
aVtomoz
p11523
aVarnt
p11524
aVkarts
p11525
aVrecord
p11526
aVbelow
p11527
aVreplay
p11528
aVswfaddress
p11529
aVcake
p11530
aVlvl
p11531
aVfaggot
p11532
aVyeap
p11533
aVmyx
p11534
aVjenny
p11535
aVintimidating
p11536
aVniley
p11537
aVspanks
p11538
aVgoodness
p11539
aVew
p11540
aVisdn
p11541
aVlobotomy
p11542
aVincredible
p11543
aVboop
p11544
aVboot
p11545
aVoprah
p11546
aVep
p11547
aVbooh
p11548
aVbook
p11549
aVboom
p11550
aVbranch
p11551
aVsice
p11552
aVincredibly
p11553
aVphish
p11554
aVsicc
p11555
aVconclusion
p11556
aVlance
p11557
aVjunk
p11558
aVtohave
p11559
aVkinds
p11560
aVjuno
p11561
aVjunn
p11562
aVshredded
p11563
aVmulch
p11564
aVmulci
p11565
aVjune
p11566
aVfrustrate
p11567
aVsocialising
p11568
aVmargaret
p11569
aVskyway
p11570
aVbeechams
p11571
aVgap
p11572
aVshredder
p11573
aVwallclimbing
p11574
aVpate
p11575
aVbanff
p11576
aVtwhirl
p11577
aVrotting
p11578
aVl8rz
p11579
aVtomor
p11580
aVraces
p11581
aVheidi
p11582
aVunderstand
p11583
aVlaundromat
p11584
aVsask
p11585
a.