(lp0
Vraining
p1
aVaiden
p2
aVsuckss
p3
aVsleek
p4
aVwoods
p5
aVsleep
p6
aVscheming
p7
aVappetite
p8
aVbattleground
p9
aVhate
p10
aVforget
p11
aVstinks
p12
aVvotes
p13
aVfeeding
p14
aVparis
p15
aVtweet
p16
aVdaley
p17
aVhedo
p18
aVexploding
p19
aVlord
p20
aVsorry
p21
aVworth
p22
aVlitle
p23
aVoilipo
p24
aVhitech
p25
aVbringing
p26
aVtickets
p27
aVschool
p28
aVbasics
p29
aVvenue
p30
aVupload
p31
aVnursery
p32
aVkarmada
p33
aVclothes
p34
aVenjoy
p35
aVbicycle
p36
aVtired
p37
aVestimates
p38
aVfabulous
p39
aVbordeirlne
p40
aVblue
p41
aVemploy
p42
aVliam
p43
aVthunder
p44
aVselected
p45
aVrevolves
p46
aVfingers
p47
aVcars
p48
aVtold
p49
aVmee
p50
aVgota
p51
aVinterns
p52
aVjoin
p53
aVweirdly
p54
aVreported
p55
aVstudio
p56
aVtoher
p57
aVactive
p58
aVpath
p59
aVdaughter
p60
aVuplifting
p61
aVcredit
p62
aVcomplicated
p63
aVayonna
p64
aVfell
p65
aVsafins
p66
aVhighly
p67
aVbrought
p68
aVsafina
p69
aVtxt
p70
aVcheating
p71
aVsweater
p72
aVmexico
p73
aVarms
p74
aVcali
p75
aVasses
p76
aVcall
p77
aVcomcast
p78
aVstrike
p79
aVtype
p80
aVtell
p81
aVseja
p82
aVabusing
p83
aVholy
p84
aVhaha
p85
aVaward
p86
aVphone
p87
aVwarm
p88
aVorganic
p89
aVhold
p90
aVlistenin
p91
aVma
p92
aVrights
p93
aVmm
p94
aVpotted
p95
aVmi
p96
aVmh
p97
aVmk
p98
aViphonegiveway
p99
aVmovies
p100
aVnorm
p101
aVinstall
p102
aVmomacita
p103
aVtweetdeck
p104
aVpollute
p105
aVwoodpecker
p106
aVabsolute
p107
aVrecovery
p108
aVhoo
p109
aVsong
p110
aVfeature
p111
aVmachine
p112
aVhot
p113
aVanswer
p114
aVbebot
p115
aVbeach
p116
aVpizza
p117
aVbadly
p118
aVbeauty
p119
aVbday
p120
aVcoined
p121
aVearlier
p122
aVcaio
p123
aVwrong
p124
aVminimizes
p125
aVlesbian
p126
aVdanny
p127
aVthird
p128
aVallison
p129
aVupside
p130
aVgoodbye
p131
aVfan
p132
aVpopsicle
p133
aVoffice
p134
aVwelcomee
p135
aVlondon
p136
aVwud
p137
aValpolitics
p138
aVius
p139
aVaiqht
p140
aVplayhouse
p141
aVima
p142
aVchihuahua
p143
aVfit
p144
aVfix
p145
aVmathces
p146
aVwriting
p147
aVfic
p148
aVphallic
p149
aVproduction
p150
aVuof
p151
aVweeks
p152
aVcoffee
p153
aViowa
p154
aVworkout
p155
aVsafe
p156
aVbreak
p157
aVband
p158
aVroommate
p159
aVbank
p160
aVsupertramp
p161
aVmeat
p162
aVarrested
p163
aVexplode
p164
aVharuhi
p165
aVbone
p166
aVluck
p167
aVcertifiably
p168
aVjillian
p169
aVgunna
p170
aVseries
p171
aVspider
p172
aVburswood
p173
aVbruce
p174
aVforgot
p175
aVsaturday
p176
aVrt
p177
aVgon
p178
aVdriving
p179
aVgod
p180
aVrx
p181
aVcontent
p182
aVre
p183
aVlaid
p184
aVnite
p185
aVdsi
p186
aVsmf
p187
aVrn
p188
aVcanaveral
p189
aVasylm
p190
aVfree
p191
aVstandard
p192
aVvets
p193
aVdishwashing
p194
aVdammit
p195
aVbirdie
p196
aVcreated
p197
aVatl
p198
aVatm
p199
aVdays
p200
aVish
p201
aVspeedy
p202
aVhopeless
p203
aVsignature
p204
aVonto
p205
aVspeeds
p206
aVdownside
p207
aVdelicious
p208
aVcomin
p209
aVcomic
p210
aVemusic
p211
aVbasketball
p212
aVservice
p213
aVopportunity
p214
aVtop
p215
aVgirls
p216
aVhollywood
p217
aVjohn
p218
aVdogs
p219
aVlisten
p220
aVkno
p221
aVmidsummer
p222
aVcereal
p223
aVwardrobe
p224
aVmessing
p225
aVthy
p226
aVfairytale
p227
aVshower
p228
aVmatter
p229
aVsilly
p230
aVspeaking
p231
aVfeeling
p232
aVandyhurleyday
p233
aVfailing
p234
aVboston
p235
aVmodern
p236
aVmind
p237
aVming
p238
aVtalking
p239
aVrat
p240
aVbogan
p241
aVseen
p242
aVmins
p243
aVbarakatday
p244
aVray
p245
aVflippin
p246
aVlatter
p247
aVrealy
p248
aVchest
p249
aVderek
p250
aVdoors
p251
aVpanties
p252
aVthrilled
p253
aVscrewing
p254
aVpowershot
p255
aVmouth
p256
aVplenty
p257
aVentry
p258
aVmacbook
p259
aVdoo
p260
aVrogers
p261
aValarm
p262
aVcamp
p263
aVdog
p264
aVbracket
p265
aVtech
p266
aVboyfriends
p267
aVannoyed
p268
aVkristen
p269
aVsaying
p270
aVsquarespace
p271
aVlyrics
p272
aVrapture
p273
aVrandom
p274
aVnominated
p275
aVsharpie
p276
aVcopy
p277
aVneena
p278
aVhrs
p279
aVsugar
p280
aVrihanna
p281
aVcousinn
p282
aVhuz
p283
aVmend
p284
aVcraper
p285
aVjlew
p286
aVwearing
p287
aVgeez
p288
aVdj
p289
aVdd
p290
aVwatch
p291
aVdc
p292
aVintegrity
p293
aVda
p294
aVdespite
p295
aVreport
p296
aVnasty
p297
aVunfortunately
p298
aVearl
p299
aVbas
p300
aVemo
p301
aVdias
p302
aVtwice
p303
aVbad
p304
aVbae
p305
aVshots
p306
aVrelease
p307
aVruins
p308
aVfluffy
p309
aVlemonade
p310
aVkashrut
p311
aVsaveohiolibraries
p312
aVdecided
p313
aVhorrendous
p314
aVfail
p315
aVbleh
p316
aVlots
p317
aVrings
p318
aVprince
p319
aVhopefully
p320
aVmum
p321
aVsorts
p322
aVencounters
p323
aVomg
p324
aVwo
p325
aVboss
p326
aVwtf
p327
aVnews
p328
aVpicking
p329
aVblasted
p330
aVkitchen
p331
aVsuggested
p332
aVclimate
p333
aVbrown
p334
aVbachelorette
p335
aVcountry
p336
aVcoz
p337
aVamazing
p338
aVlookin
p339
aVanyer
p340
aVily
p341
aVtough
p342
aVirresponsible
p343
aVmassive
p344
aVtrust
p345
aVspeak
p346
aVconference
p347
aVbathroom
p348
aVwin7rc
p349
aVcyrus
p350
aVconfident
p351
aVbasil
p352
aVlovely
p353
aVcanucks
p354
aVlife
p355
aVhospitalized
p356
aVyeahuhh
p357
aVsunshine
p358
aVlift
p359
aVchile
p360
aVchild
p361
aVcatch
p362
aVhaters
p363
aVchill
p364
aVexception
p365
aVair
p366
aVaim
p367
aVugly
p368
aVnear
p369
aVmanee
p370
aVsuppose
p371
aVteachers
p372
aVvoice
p373
aVchilling
p374
aVpessimistic
p375
aVplayed
p376
aVshame
p377
aVcant
p378
aVim
p379
aVanticipating
p380
aVconf
p381
aVid
p382
aVposterous
p383
aVquizzage
p384
aVborder
p385
aVrealizing
p386
aVfollowfriday
p387
aVroland
p388
aVelliott
p389
aVtoasted
p390
aVfwy
p391
aVily2
p392
aVraid
p393
aVella
p394
aVhang
p395
aVrain
p396
aVhand
p397
aVwaterfall
p398
aVgarlic
p399
aVmcnuggets
p400
aVkid
p401
aVdylan
p402
aVkept
p403
aVintrusion
p404
aVthx
p405
aVtht
p406
aVuploading
p407
aVocean
p408
aVtho
p409
aVburgers
p410
aVmamma
p411
aVmother
p412
aVhearts
p413
aVliqueur
p414
aVdads
p415
aVleft
p416
aVgivin
p417
aVyea
p418
aVphoto
p419
aVlaptop
p420
aVwednesday
p421
aVeverton
p422
aVpsych
p423
aVthanks
p424
aVhuman
p425
aVyep
p426
aVyes
p427
aVrushing
p428
aVhandshake
p429
aVhills
p430
aVcornell
p431
aVcharacter
p432
aVboard
p433
aVbeloved
p434
aVsave
p435
aVtmrw
p436
aVbackground
p437
aVjudge
p438
aVburns
p439
aVburnt
p440
aVvandals
p441
aVdreams
p442
aVpopulation
p443
aVcooler
p444
aVhunt
p445
aVorlando
p446
aValice
p447
aVdarn
p448
aVany1
p449
aVprivate
p450
aVavatar
p451
aVnight
p452
aVamor
p453
aVportuguese
p454
aVpeople
p455
aVmoval
p456
aVcrown
p457
aVsomehow
p458
aVdead
p459
aVwwe
p460
aVdear
p461
aVcnt
p462
aVjuusst
p463
aVopposite
p464
aVcomments
p465
aVbeating
p466
aVmosquito
p467
aVcore
p468
aVshakes
p469
aVsadpanda
p470
aVdunkin
p471
aVdeleted
p472
aVpose
p473
aVdisappeared
p474
aVgrindin
p475
aVplc
p476
aVlosing
p477
aVpost
p478
aVsuper
p479
aVmissive
p480
aVchapter
p481
aVcommie
p482
aVdollars
p483
aVsizzling
p484
aVdinner
p485
aVanime
p486
aVcancelledd
p487
aVwhats
p488
aVahh
p489
aVsoo
p490
aVnegative
p491
aVentrepreneur
p492
aVloin
p493
aVbatt
p494
aVppt
p495
aVstrangely
p496
aVinspected
p497
aVdreamin
p498
aVjoseph
p499
aVhapnin
p500
aVsniffles
p501
aVmusic
p502
aVwat
p503
aVhappy
p504
aVhead
p505
aVcelulite
p506
aVtigers
p507
aVsquaresp
p508
aVforever
p509
aVwireless
p510
aVmelanie
p511
aVbmth
p512
aVhear
p513
aVtesting
p514
aVtrue
p515
aVboro
p516
aVbyyee
p517
aVwhyy
p518
aVinside
p519
aVmtv
p520
aVbargain
p521
aVemotional
p522
aVdelete
p523
aVgarros
p524
aVtrio
p525
aVtrii
p526
aVdrive
p527
aVshiz
p528
aVsometime
p529
aVreznor
p530
aVannoying
p531
aVtrip
p532
aVshit
p533
aVnj
p534
aVtix
p535
aVfaithful
p536
aVaunts
p537
aVfloor
p538
aVna
p539
aVnd
p540
aVhanded
p541
aVreality
p542
aVtil
p543
aVny
p544
aVsetting
p545
aVdigital
p546
aVtest
p547
aVhangin
p548
aVsmell
p549
aVroll
p550
aVpicture
p551
aVbetseyjohnson
p552
aVbrothers
p553
aVphoenix
p554
aVdies
p555
aVupdate
p556
aVdeathbed
p557
aVweekend
p558
aVdied
p559
aVhiim
p560
aVantibiotics
p561
aVdaily
p562
aVvietnam
p563
aVtime
p564
aVserious
p565
aVfonebook
p566
aVsongs
p567
aVneighbors
p568
aVcessna
p569
aVmanaged
p570
aVtwenty20
p571
aVdance
p572
aVengland
p573
aVgrateful
p574
aVwiit
p575
aVfawcett
p576
aVvet
p577
aVyummy
p578
aVreligion
p579
aVfreelance
p580
aVapril
p581
aVeditors
p582
aVgigs
p583
aVsuzumiya
p584
aVfinally
p585
aVxbla
p586
aVkstew
p587
aVbestt
p588
aVshoot
p589
aVcoop
p590
aVblase
p591
aVchoice
p592
aVvegas
p593
aVdrexel
p594
aVghostbusters
p595
aVstays
p596
aVpixma
p597
aVword
p598
aVcool
p599
aVgnarly
p600
aVbabbyy
p601
aVclouds
p602
aVnectar
p603
aVlevel
p604
aVtear
p605
aVkilled
p606
aVgnarls
p607
aVposts
p608
aVbrother
p609
aVgum
p610
aVleave
p611
aVitem
p612
aVsettle
p613
aVloads
p614
aVthestreetforce
p615
aVfamed
p616
aVyall
p617
aVdis
p618
aVupper
p619
aVpork
p620
aVbrave
p621
aVuva
p622
aVregret
p623
aVporn
p624
aVobsolete
p625
aVcost
p626
aVtrent
p627
aVrun
p628
aVyippee
p629
aVchicken
p630
aVdrinks
p631
aVlmbo
p632
aVheadset
p633
aVpostman
p634
aVmyweakness
p635
aVuniform
p636
aVcurrent
p637
aVhungry
p638
aVhealth
p639
aVgoes
p640
aVshared
p641
aVground
p642
aVhummer
p643
aVdwarf
p644
aVoldies
p645
aVguardian
p646
aVfuneral
p647
aVfrench
p648
aVwater
p649
aVdownloaded
p650
aVwoot
p651
aVbaseball
p652
aVmonies
p653
aVappears
p654
aVnother
p655
aVwait
p656
aVbuck
p657
aVrobotpickuplines
p658
aVbrilliant
p659
aVshift
p660
aVlakers
p661
aVexams
p662
aVboo
p663
aVweird
p664
aVstudies
p665
aVgenuinely
p666
aValergic
p667
aVtasks
p668
aVlove
p669
aVbloody
p670
aVseashore
p671
aVfake
p672
aVsake
p673
aVpositive
p674
aVangry
p675
aVdude
p676
aVfrance
p677
aVmsn
p678
aVlive
p679
aVandy
p680
aViphone
p681
aVwondering
p682
aVmsg
p683
aVbelieving
p684
aVaustralian
p685
aVthru
p686
aVangels
p687
aVood
p688
aVafford
p689
aVchocolate
p690
aVeffort
p691
aVfly
p692
aVcar
p693
aVcap
p694
aVreviews
p695
aVwallet
p696
aVhardest
p697
aVmousey
p698
aVfollowing
p699
aVcab
p700
aVarrive
p701
aVheart
p702
aVcrazy
p703
aVfigure
p704
aVpredict
p705
aVawesome
p706
aVfuck
p707
aVheard
p708
aVcouncil
p709
aVrevising
p710
aVrishabh
p711
aVmeans
p712
aVmagazine
p713
aVnyt
p714
aVwrite
p715
aVtill
p716
aVsunday
p717
aVpure
p718
aVnyc
p719
aVtaylorrhicks
p720
aVafternoon
p721
aVedinburgh
p722
aVstaying
p723
aVleavin
p724
aVcrashed
p725
aVmac
p726
aVbirthday
p727
aVdesigned
p728
aVdate
p729
aVsuck
p730
aVguys
p731
aVstress
p732
aVremember
p733
aVconscious
p734
aVmaybe
p735
aVrollin
p736
aVobs
p737
aVtruck
p738
aVhaterade
p739
aVswollen
p740
aVdefinitions
p741
aVlafd
p742
aVsg
p743
aVsf
p744
aVse
p745
aVtypical
p746
aVcute
p747
aVhom
p748
aVparamore
p749
aVindeed
p750
aVwishing
p751
aVbrain
p752
aVcuts
p753
aVmarshmallows
p754
aVcold
p755
aVno1
p756
aVthank
p757
aVjin
p758
aVtorn
p759
aVsexiest
p760
aVclubbing
p761
aVyorkshire
p762
aVreubens
p763
aVthanx
p764
aVtweets
p765
aVmail
p766
aVvisiting
p767
aVhappened
p768
aVbusy
p769
aVchurchgirl
p770
aVnoo
p771
aVmoms
p772
aVbein
p773
aVfeelin
p774
aVlunch
p775
aVhalf
p776
aVbath
p777
aVtwilight
p778
aVmlia
p779
aVnor
p780
aVwont
p781
aVname
p782
aVopera
p783
aVsos
p784
aVnodding
p785
aVrock
p786
aVyuutsu
p787
aVem
p788
aVeh
p789
aVyeah
p790
aVpoopie
p791
aVex
p792
aVgirl
p793
aVcalling
p794
aVmonitors
p795
aVbuzz
p796
aValbum
p797
aVliving
p798
aVspace
p799
aVsquared
p800
aVlooking
p801
aVmess
p802
aVseriously
p803
aVpenguins
p804
aVhacked
p805
aVinternet
p806
aVsheffield
p807
aVmillion
p808
aVargh
p809
aVcalifornia
p810
aVbesides
p811
aVgrandma
p812
aVquits
p813
aVcough
p814
aVcard
p815
aVcare
p816
aVthankyou
p817
aVfettucini
p818
aVfootwear
p819
aVchildhood
p820
aVfrequent
p821
aVcheese
p822
aVbling
p823
aVxo
p824
aVsoftball
p825
aVpotter
p826
aVxd
p827
aVyourself
p828
aVxx
p829
aVsuspended
p830
aVspanish
p831
aVvote
p832
aVsounds
p833
aVdrove
p834
aVtomorrow
p835
aVcity
p836
aVlittle
p837
aVian
p838
aVchecked
p839
aVbite
p840
aVslept
p841
aVdrunvalo
p842
aVfml
p843
aVtragic
p844
aVwhite
p845
aVbits
p846
aVfriend
p847
aVeyes
p848
aVhug
p849
aVhub
p850
aVcope
p851
aVeuromillions
p852
aVhuh
p853
aVhuu
p854
aVgin
p855
aVjodie
p856
aVflowers
p857
aVbecuz
p858
aVboyfriend
p859
aVwide
p860
aVtelevision
p861
aVlmao
p862
aVdepressed
p863
aVgotta
p864
aVdiplomatic
p865
aVfuture
p866
aVcollege
p867
aVfizz
p868
aVdissapointed
p869
aVpre
p870
aVlocations
p871
aVsad
p872
aVrained
p873
aVtanning
p874
aVbreakfast
p875
aVsat
p876
aVspeakers
p877
aVanswering
p878
aVshocked
p879
aVgreen
p880
aVeveer
p881
aVmayer
p882
aVbutterfly
p883
aVironically
p884
aVpain
p885
aVhores
p886
aVnormal
p887
aVarguing
p888
aVpaid
p889
aVtlkd
p890
aVlawn
p891
aVespecially
p892
aVproud
p893
aVsale
p894
aVbadd
p895
aVbedss
p896
aVcertification
p897
aVcheap
p898
aVfifty
p899
aVtks
p900
aVimagined
p901
aVcheeseburgers
p902
aVcrashing
p903
aVaint
p904
aVhelio
p905
aVslow
p906
aVwoop
p907
aVstorms
p908
aVfoward
p909
aVtears
p910
aVblack
p911
aVlandin
p912
aVboyle
p913
aVhippo
p914
aVcelebrate
p915
aVfreaking
p916
aVmorning
p917
aVnaked
p918
aVstupid
p919
aVmiley
p920
aVpants
p921
aVxmas
p922
aVhusband
p923
aVconcert
p924
aVburst
p925
aVsentimenttext
p926
aVasleep
p927
aVanyways
p928
aVparking
p929
aVsurgery
p930
aVur
p931
aVsmiling
p932
aVwonder
p933
aVsatisfying
p934
aVbicyclist
p935
aValarming
p936
aVboy
p937
aVoutside
p938
aVreading
p939
aVfir
p940
aVjobs
p941
aVcomp
p942
aVscreen
p943
aVkilling
p944
aVguitar
p945
aVawards
p946
aVhurts
p947
aVjb
p948
aVjfk
p949
aVblame
p950
aVregion
p951
aVqqing
p952
aVquiet
p953
aVcontract
p954
aVtour
p955
aVsenator
p956
aVexpression
p957
aVcomes
p958
aVcancer
p959
aVpow
p960
aVjeans
p961
aVpop
p962
aVextinct
p963
aVcrew
p964
aVconsidering
p965
aVclashes
p966
aVcares
p967
aVstretch
p968
aVkosherfail
p969
aVtrams
p970
aVmark
p971
aVbreath
p972
aVlifee
p973
aVbullshit
p974
aVwantt
p975
aVtiger
p976
aVphotos
p977
aVwake
p978
aVexternal
p979
aVutube
p980
aVrinitis
p981
aVsquirrels
p982
aVpaying
p983
aVstraighten
p984
aVsqueezes
p985
aVcast
p986
aVcancelled
p987
aVive
p988
aVcanon
p989
aVsleeping
p990
aVblah
p991
aVzahra
p992
aVheels
p993
aVworry
p994
aVtlc
p995
aVmx310
p996
aVfriendster
p997
aVauthor
p998
aVpay
p999
aVnighter
p1000
aVcheck
p1001
aVfood
p1002
aVsemisonic
p1003
aVfollowers
p1004
aVurself
p1005
aVdocument
p1006
aVstatus
p1007
aVfinish
p1008
aVsickness
p1009
aVdownloads
p1010
aVcheers
p1011
aVrunning
p1012
aVbarber
p1013
aVtotally
p1014
aVcomplained
p1015
aVtheater
p1016
aVdying
p1017
aVcommission
p1018
aVeureka
p1019
aVbreeze
p1020
aVtrains
p1021
aVmodel
p1022
aVhospital
p1023
aVbodies
p1024
aVcharged
p1025
aVsummer
p1026
aVnai
p1027
aVmoney
p1028
aVrest
p1029
aVviolent
p1030
aVhehehe
p1031
aVwifey
p1032
aVthinking
p1033
aVrose
p1034
aVimprovement
p1035
aVblog
p1036
aVroughplaces
p1037
aVpill
p1038
aVswim
p1039
aVfrown
p1040
aVread
p1041
aVsoundly
p1042
aVame
p1043
aVfridge
p1044
aVwompp
p1045
aVamy
p1046
aVtraffic
p1047
aVinsist
p1048
aVmom
p1049
aVworld
p1050
aVdisappointed
p1051
aVmoe
p1052
aVfortune
p1053
aVpounds
p1054
aVhotel
p1055
aVbracelet
p1056
aVmiracle
p1057
aVserver
p1058
aVnose
p1059
aVserved
p1060
aVpacific
p1061
aVniggahz
p1062
aVkarenwild
p1063
aVroomies
p1064
aVpoll
p1065
aVgenetics
p1066
aVmood
p1067
aVdouchebag
p1068
aVmoon
p1069
aVellie
p1070
aVexit
p1071
aVaussie
p1072
aVporter
p1073
aVcramps
p1074
aVbusiness
p1075
aVtda
p1076
aVbroken
p1077
aVleadership
p1078
aVoccured
p1079
aVthrow
p1080
aVstone
p1081
aVok
p1082
aVoi
p1083
aVtease
p1084
aVisland
p1085
aVfringe
p1086
aVfavorite
p1087
aVacl
p1088
aVdibs
p1089
aVblingg
p1090
aVmixed
p1091
aVmean
p1092
aVbackup
p1093
aVroad
p1094
aVheater
p1095
aVladies
p1096
aVburning
p1097
aVanyonefeeling
p1098
aVimage
p1099
aVblessed
p1100
aVbedtime
p1101
aVparties
p1102
aVuptown
p1103
aVyouu
p1104
aVbeautyful
p1105
aVlog
p1106
aVprepare
p1107
aVhes
p1108
aVdevstatedd
p1109
aVhey
p1110
aVlol
p1111
aVdecode
p1112
aVstart
p1113
aVcats
p1114
aVlions
p1115
aVlow
p1116
aVlot
p1117
aVtreat
p1118
aVcomplete
p1119
aVkittens
p1120
aVreduce
p1121
aVpleased
p1122
aVallan
p1123
aVimisscath
p1124
aVjus
p1125
aVbookstore
p1126
aVsurvived
p1127
aVtrying
p1128
aVpull
p1129
aVidc
p1130
aVkeahey
p1131
aVcomics
p1132
aVanyway
p1133
aVstrawberry
p1134
aVdirty
p1135
aVmanuel
p1136
aVgone
p1137
aVcba
p1138
aVohh
p1139
aVgona
p1140
aVexhausted
p1141
aVah
p1142
aVam
p1143
aVdeep
p1144
aVfellow
p1145
aVkuch
p1146
aVbritain
p1147
aVaw
p1148
aVpolitics
p1149
aVmoves
p1150
aVnerd
p1151
aVselfish
p1152
aVrubbed
p1153
aVdeserve
p1154
aVringtone
p1155
aVgraduate
p1156
aVtight
p1157
aVpuppy
p1158
aVpoor
p1159
aVstudents
p1160
aVsymbol
p1161
aVfinale
p1162
aVfinaly
p1163
aVchris
p1164
aVpoemsunder140
p1165
aVfinals
p1166
aValcohol
p1167
aVwife
p1168
aVmass
p1169
aVstarting
p1170
aVbullpen
p1171
aVtomorrows
p1172
aVcaused
p1173
aVlack
p1174
aVmonth
p1175
aVfollow
p1176
aVeveryones
p1177
aVchildren
p1178
aVcauses
p1179
aVreferring
p1180
aVauckland
p1181
aVtv
p1182
aVbaddest
p1183
aVopportunities
p1184
aVchampions
p1185
aVaaron
p1186
aVti
p1187
aVsmile
p1188
aVenjoying
p1189
aVreally2
p1190
aVloviie
p1191
aVworse
p1192
aVsitting
p1193
aVsmh
p1194
aVfav
p1195
aVfat
p1196
aVworst
p1197
aVfall
p1198
aVawful
p1199
aVsony
p1200
aVticket
p1201
aVdifference
p1202
aVcondition
p1203
aVmothers
p1204
aVcelebrity
p1205
aVlaying
p1206
aVgrandfather
p1207
aVsane
p1208
aVharry
p1209
aVcookies
p1210
aVrats
p1211
aVportable
p1212
aVtea
p1213
aVskin
p1214
aVpast
p1215
aVdesign
p1216
aVpass
p1217
aVcreatures
p1218
aVabc
p1219
aVclock
p1220
aVcaffeine
p1221
aVxox
p1222
aVguna
p1223
aVcoroner
p1224
aVabt
p1225
aVlearned
p1226
aVblankeys
p1227
aVpublic
p1228
aVsux
p1229
aViran
p1230
aVmmaybe
p1231
aVhungover
p1232
aVvale
p1233
aVhours
p1234
aVjonas
p1235
aVstrong
p1236
aVsearch
p1237
aVahead
p1238
aVfwd
p1239
aVvegetarian
p1240
aVharddrive
p1241
aVexperience
p1242
aVairport
p1243
aVhamster
p1244
aVsocial
p1245
aVheartbroken
p1246
aVvia
p1247
aVfamily
p1248
aVsuddenly
p1249
aVdeathmatch
p1250
aVjailbreak
p1251
aVnetball
p1252
aVtexts
p1253
aVbritains
p1254
aVswastikas
p1255
aVeye
p1256
aVdonuts
p1257
aVcharge
p1258
aVsquarespac
p1259
aVzoro
p1260
aVkick
p1261
aVautographs
p1262
aVflat
p1263
aVdoor
p1264
aVmad
p1265
aVlanded
p1266
aVfloyd
p1267
aVstick
p1268
aVbroke
p1269
aVboredd
p1270
aVglad
p1271
aVtown
p1272
aVnone
p1273
aVhour
p1274
aVmiddle
p1275
aVscience
p1276
aVsucks
p1277
aVdem
p1278
aVhenderson
p1279
aVdef
p1280
aVbeautiful
p1281
aVstubborn
p1282
aVdiabetic
p1283
aVstated
p1284
aVshare
p1285
aVsense
p1286
aVepicc
p1287
aVtoolio
p1288
aVhuge
p1289
aVcourt
p1290
aVneeda
p1291
aVmaps
p1292
aVhugs
p1293
aVexplains
p1294
aVeatting
p1295
aVfr
p1296
aVfs
p1297
aVplans
p1298
aVadvice
p1299
aVfb
p1300
aVplane
p1301
aVcoming
p1302
aVfl
p1303
aVresponse
p1304
aVshort
p1305
aVpalmolive
p1306
aVsusan
p1307
aVtweeting
p1308
aVsence
p1309
aVbugs
p1310
aVfuckin
p1311
aVscaring
p1312
aVnebody
p1313
aVdream
p1314
aVplaying
p1315
aVjordans
p1316
aVmexican
p1317
aVhelp
p1318
aVincessantly
p1319
aVsoon
p1320
aVcook
p1321
aVisnt
p1322
aVpaper
p1323
aVreplies
p1324
aVhell
p1325
aVitt
p1326
aVbizkit
p1327
aVbummed
p1328
aVpens
p1329
aVactually
p1330
aVlate
p1331
aVdetected
p1332
aVpac
p1333
aVlata
p1334
aVthnk
p1335
aVbout
p1336
aVsoccer
p1337
aVevening
p1338
aVmotivated
p1339
aVsucking
p1340
aVya
p1341
aVgoon
p1342
aVgadget
p1343
aVye
p1344
aVwalls
p1345
aVhuskies
p1346
aVdinger
p1347
aVcomplain
p1348
aVyw
p1349
aVsucked
p1350
aVholiday
p1351
aVeverytime
p1352
aVnugget
p1353
aVlizzie
p1354
aVgud
p1355
aVlabeling
p1356
aVstopped
p1357
aVfound
p1358
aVtrailer
p1359
aVreferred
p1360
aVweek
p1361
aVgettin
p1362
aVweeknd
p1363
aVmental
p1364
aVhouse
p1365
aVhard
p1366
aVhaley
p1367
aVidea
p1368
aVdemocrat
p1369
aVtonite
p1370
aVexpect
p1371
aVgoodnite
p1372
aVbeyond
p1373
aVevent
p1374
aVmissed
p1375
aVftw
p1376
aVeddings
p1377
aVpublish
p1378
aVsafety
p1379
aVparadise
p1380
aVlolz
p1381
aVoffline
p1382
aVass
p1383
aVdefinately
p1384
aVast
p1385
aVfriday
p1386
aVstory
p1387
aVpub
p1388
aVreason
p1389
aVtoy
p1390
aVmaths
p1391
aVheads
p1392
aVguy
p1393
aVdefinition
p1394
aVsytycd
p1395
aVterrible
p1396
aVexpecting
p1397
aVluvly
p1398
aVdaisy
p1399
aVdont
p1400
aVfeel
p1401
aVhistorian
p1402
aVtourny
p1403
aVbhai
p1404
aVcomfy
p1405
aVmiss
p1406
aVguess
p1407
aVcifra
p1408
aVtemperature
p1409
aVdivorce
p1410
aVgpa
p1411
aVpaint
p1412
aVilysfm
p1413
aVwonderful
p1414
aVpassed
p1415
aVbanana
p1416
aVstore
p1417
aVlease
p1418
aVundies
p1419
aVpara
p1420
aVscoobs
p1421
aVjamie
p1422
aVtalvez
p1423
aVscooby
p1424
aVdentist
p1425
aVdoctors
p1426
aVbelieve
p1427
aVdaytona
p1428
aVgrocery
p1429
aVreaally
p1430
aVbag
p1431
aVdouble
p1432
aVvoltron
p1433
aVstalk
p1434
aVmotivation
p1435
aVphobia
p1436
aVoutta
p1437
aVrecital
p1438
aVnodaji
p1439
aVelise
p1440
aVsell
p1441
aVkoala
p1442
aVdancing
p1443
aVlil
p1444
aVself
p1445
aVuseless
p1446
aVfinding
p1447
aVbitchess
p1448
aVcavs
p1449
aVeff
p1450
aVplay
p1451
aVadded
p1452
aVeggs
p1453
aVreach
p1454
aVmosh
p1455
aVkam
p1456
aVjst
p1457
aVvirus
p1458
aVplan
p1459
aVeaten
p1460
aVhospitol
p1461
aVwats
p1462
aVka
p1463
aVexe
p1464
aVbugaboo
p1465
aVpopularity
p1466
aVclean
p1467
aVky
p1468
aVusual
p1469
aVugh
p1470
aVgolf
p1471
aVwailing
p1472
aVbooze
p1473
aVsprayed
p1474
aVstalker
p1475
aVmelody
p1476
aVfine
p1477
aVflicked
p1478
aVchoco
p1479
aVnorthern
p1480
aVnervous
p1481
aVwriter
p1482
aVfailed
p1483
aVpretty
p1484
aVgiants
p1485
aVquizzes
p1486
aVexpress
p1487
aVsunny
p1488
aVfeels
p1489
aVbatter
p1490
aVinternational
p1491
aVemails
p1492
aVptosis
p1493
aVaramex
p1494
aVcry
p1495
aVcartoons
p1496
aVhype
p1497
aVwrote
p1498
aVscanning
p1499
aVart
p1500
aVmondayeyes
p1501
aVbungie
p1502
aVsex
p1503
aVhogged
p1504
aVleslie
p1505
aVclose
p1506
aVarm
p1507
aVrepairs
p1508
aVtummy
p1509
aVdeactivate
p1510
aVpictures
p1511
aVcurrently
p1512
aVnutella
p1513
aVdemons
p1514
aVgiveway
p1515
aVwoo
p1516
aVdistraught
p1517
aVrlly
p1518
aVtransfered
p1519
aVcompliment
p1520
aVmissing
p1521
aVsold
p1522
aViranelection
p1523
aVkandie
p1524
aVconnection
p1525
aValot
p1526
aVcanadians
p1527
aVexperimental
p1528
aVload
p1529
aVheaded
p1530
aVsimple
p1531
aVsweet
p1532
aVmanners
p1533
aVnewborn
p1534
aVlikes
p1535
aVomgaga
p1536
aVchurch
p1537
aVexpensive
p1538
aVfu2
p1539
aVduo
p1540
aVcreativity
p1541
aVdue
p1542
aVpc
p1543
aVpa
p1544
aVdamn
p1545
aVchange
p1546
aVireland
p1547
aVpi
p1548
aVmeeting
p1549
aVempty
p1550
aVlvatt
p1551
aVlived
p1552
aVflight
p1553
aVgay
p1554
aVsending
p1555
aVelse
p1556
aVawake
p1557
aVrealms
p1558
aVprices
p1559
aVlook
p1560
aVsteezy
p1561
aVraw
p1562
aVfrozen
p1563
aVstraight
p1564
aVbill
p1565
aVconvo
p1566
aVreplaced
p1567
aVhomework
p1568
aVerror
p1569
aVfun
p1570
aVreal
p1571
aVhoping
p1572
aVportugal
p1573
aVmotors
p1574
aVrip
p1575
aVhoax
p1576
aVfucckk
p1577
aVready
p1578
aVrid
p1579
aVfunny
p1580
aVsquarespce
p1581
aVshirt
p1582
aVanymore
p1583
aVitchy
p1584
aVselma
p1585
aVtemporary
p1586
aVassignment
p1587
aVgallery
p1588
aVyesterday
p1589
aVmoment
p1590
aVmoving
p1591
aVgonna
p1592
aVbanten
p1593
aVbrussels
p1594
aVstack
p1595
aVdark
p1596
aVlower
p1597
aVpicky
p1598
aVnola
p1599
aVperson
p1600
aVknw
p1601
aVchemistry
p1602
aVspend
p1603
aVweakest
p1604
aVsims
p1605
aVlistening
p1606
aVreviewed
p1607
aVdistracting
p1608
aViero
p1609
aVstunt
p1610
aVelect
p1611
aVpraying
p1612
aVinjuries
p1613
aVletting
p1614
aVcut
p1615
aVcup
p1616
aVlady
p1617
aVcuz
p1618
aVparents
p1619
aVexhibition
p1620
aVcrying
p1621
aVexcited
p1622
aVhates
p1623
aVbuild
p1624
aVaustralia
p1625
aVmotivating
p1626
aVemergency
p1627
aVdvds
p1628
aVcouple
p1629
aVunlimited
p1630
aVmatters
p1631
aVgame
p1632
aVmoods
p1633
aVbit
p1634
aVwings
p1635
aVtokiohotel
p1636
aVworkn
p1637
aVsignal
p1638
aVcapitals
p1639
aVignore
p1640
aVcommunications
p1641
aVbukas
p1642
aVdisorder
p1643
aVgoogle
p1644
aVfucking
p1645
aVfathers
p1646
aVtowards
p1647
aVpalm
p1648
aVoddly
p1649
aVcontacts
p1650
aVbball
p1651
aVlufflies
p1652
aVepic
p1653
aVprob
p1654
aVblackberry
p1655
aVbf
p1656
aVeating
p1657
aVbb
p1658
aVlaker
p1659
aVrue
p1660
aVjazzy
p1661
aVstew
p1662
aVaswell
p1663
aVshine
p1664
aVtweetwrath
p1665
aVbraille
p1666
aVdelish
p1667
aVgraduation
p1668
aVpiled
p1669
aVidk
p1670
aVgermany
p1671
aVartbook
p1672
aVwanna
p1673
aVbleeds
p1674
aVsilence
p1675
aVppl
p1676
aVseeing
p1677
aVstitched
p1678
aVvisit
p1679
aVmommy
p1680
aVservers
p1681
aVtempermental
p1682
aVchangin
p1683
aVlesson
p1684
aVkatie
p1685
aVstatistics
p1686
aVspam
p1687
aVxoxo
p1688
aVfast
p1689
aVspaz
p1690
aVcrackdown
p1691
aVsummertime
p1692
aVforward
p1693
aVbored
p1694
aVscared
p1695
aVboys
p1696
aVlampard
p1697
aVproperly
p1698
aVlink
p1699
aValive
p1700
aVcram
p1701
aVline
p1702
aVpenguin
p1703
aVtumblr
p1704
aVjonathan
p1705
aVfulfilling
p1706
aVuw
p1707
aVfries
p1708
aVthroug
p1709
aVuh
p1710
aVuk
p1711
aVcalled
p1712
aVyelled
p1713
aVfans
p1714
aVsingle
p1715
aVwarning
p1716
aVchat
p1717
aVwove
p1718
aVrainy
p1719
aVwaiit
p1720
aVgrr
p1721
aVpeace
p1722
aVshortstack
p1723
aVbubblegum
p1724
aVclub
p1725
aVnap
p1726
aVdt
p1727
aVdepartment
p1728
aVjamarcuss
p1729
aVnice
p1730
aVunderstatement
p1731
aVvisits
p1732
aVmeaning
p1733
aVrested
p1734
aVfishes
p1735
aVwizz
p1736
aVago
p1737
aVland
p1738
aVhappier
p1739
aVdvd
p1740
aVyoutube
p1741
aVgr8
p1742
aVxbl
p1743
aVhella
p1744
aVfresh
p1745
aVsvu
p1746
aVhello
p1747
aVincorporate
p1748
aVresults
p1749
aVenjoyable
p1750
aVhyper
p1751
aVgb
p1752
aVstres
p1753
aVgossip
p1754
aVgm
p1755
aVissues
p1756
aVcody
p1757
aVsend
p1758
aVhelps
p1759
aVfamliy
p1760
aVfone
p1761
aVcustomer
p1762
aVlabels
p1763
aVquorn
p1764
aVdessert
p1765
aVocto
p1766
aVwishes
p1767
aVtelling
p1768
aVtri
p1769
aVmagic
p1770
aVshock
p1771
aVtry
p1772
aVrace
p1773
aVcongrats
p1774
aVp1wimax
p1775
aVinspection
p1776
aVride
p1777
aVsomeday
p1778
aVeverythings
p1779
aVwaking
p1780
aVfold
p1781
aVvideo
p1782
aVpicked
p1783
aVcomprehend
p1784
aVthighs
p1785
aVpower
p1786
aVkris
p1787
aVgiving
p1788
aVpaddle
p1789
aVcell
p1790
aVwaiting
p1791
aVexperiment
p1792
aVbahahaha
p1793
aVelectricity
p1794
aVblender
p1795
aVexercise
p1796
aVbody
p1797
aVlea
p1798
aVleg
p1799
aVgathered
p1800
aVpushing
p1801
aVpunch
p1802
aVgrowing
p1803
aVexplore
p1804
aVintercept
p1805
aVsink
p1806
aVtalent
p1807
aVmetro
p1808
aVleaving
p1809
aVpopcorn
p1810
aVmakes
p1811
aVthats
p1812
aVcontrol
p1813
aVapple
p1814
aVwin
p1815
aVapp
p1816
aVapt
p1817
aVwit
p1818
aVapl
p1819
aVstanding
p1820
aVfed
p1821
aVcheered
p1822
aVcrap
p1823
aVclocking
p1824
aViced
p1825
aVdoodle
p1826
aVchp
p1827
aVcamera
p1828
aVcoldplay
p1829
aVeagles
p1830
aVpanel
p1831
aVsort
p1832
aVdentists
p1833
aVstarted
p1834
aVconfused
p1835
aVsore
p1836
aVtrain
p1837
aVashamed
p1838
aVbaby
p1839
aVlammee
p1840
aVwomen
p1841
aVsongstuckinmyheadwheniwokeup
p1842
aVaccount
p1843
aVskydiving
p1844
aVathlete
p1845
aVpackage
p1846
aVpraise
p1847
aVpaints
p1848
aVmeet
p1849
aVdrops
p1850
aVdidnt
p1851
aVtat
p1852
aVborrowed
p1853
aVpatrol
p1854
aVproviders
p1855
aVferrets
p1856
aVtax
p1857
aVpieces
p1858
aVbend
p1859
aVtwitpic
p1860
aVwaahh
p1861
aVafi
p1862
aVlame
p1863
aVvibe
p1864
aVtoodles
p1865
aVfcukk
p1866
aVdelay
p1867
aVbrian
p1868
aVoveranalyzing
p1869
aVpaley
p1870
aVt9ar5
p1871
aVstop
p1872
aVtied
p1873
aVbothered
p1874
aVasot400
p1875
aVleysh
p1876
aVterrier
p1877
aVcuddling
p1878
aVsry
p1879
aVos
p1880
aVbing
p1881
aVguru
p1882
aVlines
p1883
aVprawns
p1884
aVhonestly
p1885
aVrealizes
p1886
aVallow
p1887
aVcrawling
p1888
aVnecklace
p1889
aVmustache
p1890
aVmove
p1891
aVgiveaways
p1892
aVlooks
p1893
aVhorny
p1894
aVbunch
p1895
aVhorsie
p1896
aVouter
p1897
aVla
p1898
aVresponsibilities
p1899
aVmeantime
p1900
aVcovered
p1901
aVbye
p1902
aVgongwer
p1903
aVdad
p1904
aVcrash
p1905
aVdam
p1906
aVdan
p1907
aVdat
p1908
aVmention
p1909
aVaiigght
p1910
aVspelt
p1911
aVstout
p1912
aVambition
p1913
aVfront
p1914
aVrealize
p1915
aVtrae
p1916
aVnfd
p1917
aVuniversity
p1918
aVbows
p1919
aVgoodbassplayer
p1920
aVtwitterpated
p1921
aVmelchizedek
p1922
aVdoesnt
p1923
aVtruth
p1924
aVtombre
p1925
aVglasses
p1926
aVbueno
p1927
aVdrizzy
p1928
aVdoing
p1929
aVglobe
p1930
aVapologize
p1931
aVmas
p1932
aVbluetooth
p1933
aVbooks
p1934
aVcheeseburglar
p1935
aVpopping
p1936
aVmatt
p1937
aVentertainment
p1938
aVstayin
p1939
aVmate
p1940
aVhilarious
p1941
aVcause
p1942
aVred
p1943
aVshut
p1944
aVdictionary
p1945
aVfrank
p1946
aVecl
p1947
aVcompletely
p1948
aVplease
p1949
aVyork
p1950
aVcraving
p1951
aVchilli
p1952
aVbackwards
p1953
aVyard
p1954
aVgelatin
p1955
aVmowin
p1956
aVtimes
p1957
aVchilly
p1958
aVdavis
p1959
aVchills
p1960
aVspilt
p1961
aVblown
p1962
aVmuslims
p1963
aVbitch
p1964
aVbjork
p1965
aVhehe
p1966
aVowning
p1967
aVsadly
p1968
aVunknown
p1969
aVmyspace
p1970
aVsystem
p1971
aVpriority
p1972
aVpavel
p1973
aVbosco
p1974
aVfinal
p1975
aVbeard
p1976
aVrsl
p1977
aVtrackle
p1978
aVstars
p1979
aVshallow
p1980
aVbeatings
p1981
aVdepressing
p1982
aVenvironmental
p1983
aVjuly
p1984
aVupdating
p1985
aVboring
p1986
aVbother
p1987
aVgoodnight
p1988
aVbed
p1989
aVtortured
p1990
aVgayy
p1991
aVloves
p1992
aVlight
p1993
aVsteer
p1994
aVdrunk
p1995
aVjulian
p1996
aVtonight
p1997
aVgentle
p1998
aVthroat
p1999
aVapparently
p2000
aVmii
p2001
aVcatholic
p2002
aVafraid
p2003
aVmin
p2004
aVmia
p2005
aVallergies
p2006
aVmic
p2007
aVable
p2008
aVbattles
p2009
aVbagel
p2010
aVbabes
p2011
aVchaise
p2012
aVasshole
p2013
aVsoap
p2014
aVtimess
p2015
aVunless
p2016
aVaww
p2017
aVsewing
p2018
aVcentro
p2019
aVwht
p2020
aVsb
p2021
aVdevice
p2022
aVhighschool
p2023
aVclass
p2024
aVtraveltips
p2025
aVgather
p2026
aVupset
p2027
aVlooked
p2028
aVconstruction
p2029
aVgoodniqht
p2030
aVtalk
p2031
aVmovie
p2032
aVrelievers
p2033
aVskinny
p2034
aVskunk
p2035
aVow
p2036
aVaffair
p2037
aVoreos
p2038
aVdbl
p2039
aVtext
p2040
aVcharles
p2041
aVspanking
p2042
aVbring
p2043
aVmanchester
p2044
aVbedroom
p2045
aVrough
p2046
aVsharepoint
p2047
aVknowledge
p2048
aVmumbai
p2049
aVbrighten
p2050
aVblocker
p2051
aVriding
p2052
aVhope
p2053
aVwatching
p2054
aVbeat
p2055
aVambergirl66
p2056
aVmichigan
p2057
aVawwh
p2058
aVjoint
p2059
aVones
p2060
aVwords
p2061
aVprobably
p2062
aVchips
p2063
aVcrabs
p2064
aVqs
p2065
aVfemmes
p2066
aVtemp
p2067
aVshy
p2068
aVughh
p2069
aVtaxes
p2070
aVteams
p2071
aVstuff
p2072
aVwaterfalls
p2073
aVgrac
p2074
aVbtw
p2075
aVtemporarily
p2076
aVprayers
p2077
aVdrills
p2078
aVnational
p2079
aVgutterd
p2080
aVspazzing
p2081
aVcomputer
p2082
aVdesperate
p2083
aVblowdrying
p2084
aVstats
p2085
aVdestiny
p2086
aVluv
p2087
aVattempting
p2088
aVnightmare
p2089
aVtend
p2090
aVicecream
p2091
aVwritten
p2092
aVclosed
p2093
aVhorrible
p2094
aVneither
p2095
aVflickr
p2096
aVfrustrated
p2097
aVemail
p2098
aVbought
p2099
aVexam
p2100
aVjob
p2101
aVjon
p2102
aVdavid
p2103
aVcommands
p2104
aVtaking
p2105
aVpresentations
p2106
aVkosher
p2107
aVetc
p2108
aVtlk
p2109
aVjersey
p2110
aVotherwise
p2111
aVch
p2112
aVchealea
p2113
aVmalcolm
p2114
aVwalk
p2115
aVinspite
p2116
aVpouring
p2117
aVyay
p2118
aVwills
p2119
aVfaltam
p2120
aVbbc
p2121
aVrb2
p2122
aVsuposed
p2123
aVslowly
p2124
aVaunties
p2125
aVcurtain
p2126
aVhottest
p2127
aVnaples
p2128
aVtrinity
p2129
aVfield
p2130
aVdiversity
p2131
aVpainted
p2132
aVhmv
p2133
aVcos
p2134
aVhmm
p2135
aVfinished
p2136
aVboyfie
p2137
aVawhhe
p2138
aVhomes
p2139
aVtheyve
p2140
aVinn
p2141
aVvalue
p2142
aVhomee
p2143
aVncaa
p2144
aVmcflyforgermany
p2145
aVsite
p2146
aVlonely
p2147
aVwatched
p2148
aVcolostomy
p2149
aVtattoo
p2150
aVprogressing
p2151
aVfunniest
p2152
aVirissa
p2153
aVinch
p2154
aVparty
p2155
aVball
p2156
aVmysapce
p2157
aVsequel
p2158
aVdrink
p2159
aVheathers
p2160
aVhuhuhu
p2161
aVstudent
p2162
aVfucked
p2163
aVreflection
p2164
aVbanging
p2165
aVbaltimore
p2166
aVlimp
p2167
aVmuscle
p2168
aVdrawing
p2169
aVfetal
p2170
aVnadal
p2171
aVcarrie
p2172
aVbananas
p2173
aVcried
p2174
aVhands
p2175
aVdose
p2176
aVheadin
p2177
aVpaul
p2178
aVhappiness
p2179
aVmourn
p2180
aVweb
p2181
aVgenerous
p2182
aVwee
p2183
aVwed
p2184
aVjeff
p2185
aVsky
p2186
aVday
p2187
aVadd
p2188
aVwet
p2189
aVbaithing
p2190
aVought
p2191
aVmatch
p2192
aVsweep
p2193
aVincreases
p2194
aVroyalty
p2195
aVfive
p2196
aVoverdosed
p2197
aVloss
p2198
aVlost
p2199
aVcandy
p2200
aVloses
p2201
aVchica
p2202
aVlose
p2203
aVpage
p2204
aVreplacement
p2205
aVshed
p2206
aVmorrea
p2207
aVtwitter
p2208
aVlibrary
p2209
aVhair
p2210
aVholler
p2211
aVshes
p2212
aVcleveland
p2213
aVhome
p2214
aVdrizzle
p2215
aVhappens
p2216
aVlead
p2217
aVliterally
p2218
aVkettle
p2219
aVfedex
p2220
aVfloss
p2221
aVdinara
p2222
aVschedule
p2223
aVbowling
p2224
aVkristis
p2225
aVworthy
p2226
aVhiding
p2227
aVsister
p2228
aVquarter
p2229
aVcarried
p2230
aVgetting
p2231
aVuniverse
p2232
aVnapp
p2233
aVtongue
p2234
aVpowerpoint
p2235
aVswimming
p2236
aVown
p2237
aVwashington
p2238
aVgoiing
p2239
aVimmune
p2240
aVweather
p2241
aVfemale
p2242
aVcouldnt
p2243
aVwhom
p2244
aVtransfer
p2245
aVapps
p2246
aVyrs
p2247
aVbuy
p2248
aVnorth
p2249
aVmaintenance
p2250
aVhr
p2251
aVbitches
p2252
aVbuu
p2253
aVsubjective
p2254
aVhi
p2255
aVyeesshh
p2256
aVear
p2257
aVeat
p2258
aVcelly
p2259
aVfarrah
p2260
aVwish
p2261
aVbck
p2262
aVhosting
p2263
aVsigned
p2264
aVkicked
p2265
aVcake
p2266
aVnominations
p2267
aVminutes
p2268
aVdisplay
p2269
aVshottas
p2270
aVpic
p2271
aVpie
p2272
aVpig
p2273
aVbeats
p2274
aVconan
p2275
aVgoodness
p2276
aVparaguay
p2277
aVbalcony
p2278
aVarre
p2279
aVcontest
p2280
aVdressed
p2281
aVbook
p2282
aVboom
p2283
aVsick
p2284
aVtalkin
p2285
aVbubu
p2286
aVfrancisco
p2287
aVstar
p2288
aVquilting
p2289
aVmonday
p2290
aVstay
p2291
aVchance
p2292
aVkinda
p2293
aVfriends
p2294
aVgoin
p2295
aVfuuck
p2296
aVoral
p2297
aVrule
p2298
aVunderstand
p2299
aVgardens
p2300
a.