(lp0
Vraining
p1
aVinning
p2
aVsleep
p3
aVasian
p4
aVhanging
p5
aVdere
p6
aVhate
p7
aVpoorly
p8
aVpedro
p9
aVspellcheck
p10
aVbuddy
p11
aVaug
p12
aVparis
p13
aVtweet
p14
aVbike
p15
aVteaching
p16
aVsorry
p17
aVworth
p18
aVsoftener
p19
aVcallin
p20
aVhahahah
p21
aVrenang
p22
aVinternetness
p23
aVdell
p24
aVglasvegas
p25
aVupdates
p26
aVbringing
p27
aVpostpone
p28
aVspecial
p29
aVtickets
p30
aVschool
p31
aVnomnomnom
p32
aVbaking
p33
aVkellus
p34
aVskills
p35
aVcompanies
p36
aVwednesday
p37
aVhussie
p38
aVsolid
p39
aVred
p40
aVheading
p41
aVclothes
p42
aVenjoy
p43
aVbabygirl
p44
aVtired
p45
aVjustsaw
p46
aVmidsummer
p47
aVchef
p48
aVstreet
p49
aVeurovision
p50
aVfollow
p51
aVpanda
p52
aVblouse
p53
aVaim
p54
aVhide
p55
aVchrist
p56
aVcontributed
p57
aVfingers
p58
aVlights
p59
aVen
p60
aVbeater
p61
aVtips
p62
aVofficially
p63
aVdisney
p64
aVunmotivated
p65
aVpats
p66
aVkicked
p67
aVmeh
p68
aVmet
p69
aVlottanew
p70
aVchina
p71
aVpursuit
p72
aVdry
p73
aVgorbie
p74
aVkids
p75
aVdaughter
p76
aVstudy
p77
aVitunes
p78
aVcredit
p79
aVjogging
p80
aVsaint
p81
aVako
p82
aVsuitable
p83
aVchanges
p84
aVswappable
p85
aVfantastic
p86
aVcampaign
p87
aVthusday
p88
aVhiya
p89
aVstrat
p90
aVfeelings
p91
aVbro
p92
aVcarphone
p93
aVtotal
p94
aVtweeties
p95
aVhospital
p96
aVhungry
p97
aVinsult
p98
aVcali
p99
aVcall
p100
aVdns
p101
aVpreview
p102
aVtype
p103
aVtell
p104
aVposting
p105
aVsuccessful
p106
aVhaha
p107
aVwars
p108
aVmuse
p109
aVhurt
p110
aVphone
p111
aVberlin
p112
aVwarm
p113
aVadult
p114
aVlord
p115
aVhold
p116
aVtampa
p117
aVenjoying
p118
aVjoin
p119
aVrights
p120
aVmm
p121
aVmo
p122
aVilysm
p123
aVmovies
p124
aVcuddle
p125
aVms
p126
aVdunno
p127
aVroot
p128
aVcoulda
p129
aVfortress
p130
aVshook
p131
aVstressing
p132
aVheartless
p133
aVhomie
p134
aVohman
p135
aVones
p136
aVrecovery
p137
aVsitting
p138
aVnuts
p139
aVfeature
p140
aVmulch
p141
aVhot
p142
aVinterview
p143
aVbeach
p144
aVfever
p145
aVdescription
p146
aVmess
p147
aVearlier
p148
aVthankyou
p149
aVwrong
p150
aVova
p151
aVpresident
p152
aVlaw
p153
aVarch
p154
aVappreciate
p155
aVberbatov
p156
aVsickening
p157
aVgreen
p158
aVjungle
p159
aVgoodbye
p160
aVfan
p161
aVjack
p162
aVbestie
p163
aVdeck
p164
aVwelcomee
p165
aVawful
p166
aVdumbasabagofbolts
p167
aVlondon
p168
aVvita
p169
aVpplz
p170
aVscoring
p171
aVpharma
p172
aVsurpise
p173
aVsoaking
p174
aVimo
p175
aVcrew
p176
aVweeks
p177
aVtonyss
p178
aVcoffee
p179
aVworkout
p180
aVsafe
p181
aVbreak
p182
aVroommate
p183
aVwednesdays
p184
aVschools
p185
aVmucho
p186
aVfederer
p187
aVbread
p188
aVdebut
p189
aVbarton
p190
aVdetroit
p191
aVchoir
p192
aVtimeout
p193
aVpayton
p194
aVmean
p195
aVfinancial
p196
aVmdm
p197
aVrainin
p198
aVvote
p199
aVwiith
p200
aVforgot
p201
aVsaturday
p202
aVdriving
p203
aVrs
p204
aVkuwait
p205
aVsms
p206
aVgeorge
p207
aVsurprise
p208
aVsme
p209
aVtcot
p210
aVresume
p211
aVopenspacecode
p212
aVfave
p213
aVfree
p214
aVstandard
p215
aVcrwd
p216
aVstruggle
p217
aVhoodie
p218
aVstashed
p219
aVate
p220
aVdayz
p221
aVbirdie
p222
aVrecovering
p223
aVpcis
p224
aVatl
p225
aVmessages
p226
aVdays
p227
aVscruff
p228
aVfilter
p229
aVmvc
p230
aVwhatta
p231
aVarrived
p232
aVonto
p233
aVfuckin
p234
aVfeatures
p235
aVrender
p236
aVunfollowed
p237
aVprimary
p238
aVdictionary
p239
aVemail
p240
aVinfused
p241
aVscissors
p242
aVseizures
p243
aVulyanin
p244
aVservice
p245
aVtor
p246
aVtop
p247
aVgirls
p248
aVtango
p249
aVtom
p250
aVrockin
p251
aVkewl
p252
aVjohn
p253
aVdogs
p254
aVlisten
p255
aVmurder
p256
aVconsol
p257
aVgeneva
p258
aVbacon
p259
aValbert
p260
aVrejected
p261
aVcrawl
p262
aVnofx
p263
aVhike
p264
aVzero
p265
aVtourists
p266
aVshower
p267
aVmatter
p268
aVclasses
p269
aVcabin
p270
aVhottie
p271
aVfeeling
p272
aVpowers
p273
aVpattinson
p274
aVrunner
p275
aVmind
p276
aVmine
p277
aVtalking
p278
aVgiveaway
p279
aVplzz
p280
aVseen
p281
aVmins
p282
aVdozen
p283
aVdisorganised
p284
aVtho
p285
aVmargaux
p286
aVperson
p287
aVsnow
p288
aVrealy
p289
aVclient
p290
aVyucky
p291
aVtastie
p292
aVeddna
p293
aVobject
p294
aVlooming
p295
aVmouth
p296
aVletter
p297
aVbsb
p298
aVdummy
p299
aVepisode
p300
aVdoc
p301
aVcamp
p302
aVdog
p303
aVwuold
p304
aVdefinitely
p305
aVaunt
p306
aVenterprise
p307
aVcostello
p308
aVgermany
p309
aVannoyed
p310
aVincomplete
p311
aVkristen
p312
aVsaying
p313
aVsquarespace
p314
aVunironed
p315
aVqueen
p316
aVpiss
p317
aVprix
p318
aVradio
p319
aVsolutions
p320
aVdopey
p321
aVearth
p322
aVprobs
p323
aVtoast
p324
aVbusy
p325
aVlayout
p326
aVcousins
p327
aVdateline
p328
aVhrs
p329
aVhrm
p330
aVlodge
p331
aVrice
p332
aVoct
p333
aVtestweek
p334
aVplate
p335
aVdm
p336
aVloved
p337
aVbruise
p338
aVwatch
p339
aVdc
p340
aVhussain
p341
aVcoast
p342
aVpocket
p343
aVwedding
p344
aVnasty
p345
aVdr
p346
aVinterwebz
p347
aVbat
p348
aVbar
p349
aVbay
p350
aVtwice
p351
aVbad
p352
aVairtubes
p353
aVmandatory
p354
aVfair
p355
aVmed
p356
aVtesting
p357
aVroadmap
p358
aVrecieve
p359
aVdepends
p360
aVdecided
p361
aVresult
p362
aVfail
p363
aVmiserable
p364
aVbee
p365
aVlots
p366
aVscore
p367
aVfinger
p368
aVhopefully
p369
aVmum
p370
aVboniver
p371
aVlazy
p372
aVomg
p373
aVnature
p374
aVvitamin
p375
aVboss
p376
aVnews
p377
aVkitchen
p378
aVpity
p379
aVreceived
p380
aVaccident
p381
aVmvc2
p382
aVfault
p383
aVill
p384
aVcoz
p385
aVtweetycakes
p386
aVgames
p387
aVspurs
p388
aVlookin
p389
aVtomarrow
p390
aVuni
p391
aVily
p392
aVyaay
p393
aVlegs
p394
aVviruses
p395
aVtrust
p396
aVspeak
p397
aVmmee
p398
aVbeer
p399
aVtlaga
p400
aVlovely
p401
aVthrew
p402
aVwebsite
p403
aVdigits
p404
aVlife
p405
aVfamilies
p406
aVspit
p407
aVsunshine
p408
aVwritting
p409
aVlift
p410
aVchild
p411
aVcatch
p412
aVsampson
p413
aVair
p414
aVdellechiaie
p415
aVlizard
p416
aVslam
p417
aVsuppose
p418
aVteachers
p419
aValratos
p420
aVchilling
p421
aVsavanna
p422
aVveronica
p423
aVplayed
p424
aVdumped
p425
aVskipping
p426
aVcant
p427
aVim
p428
aVhebrew
p429
aVviolin
p430
aVid
p431
aVamount
p432
aVforehead
p433
aVfollowfriday
p434
aVhahah
p435
aVsat
p436
aVwheel
p437
aVnih
p438
aVlools
p439
aVpalpably
p440
aVblue
p441
aVhang
p442
aVrecco
p443
aVrain
p444
aVkit
p445
aVphotographers
p446
aVthinkgeek
p447
aVjealous
p448
aVfaiths
p449
aVlarissa
p450
aVkid
p451
aVkept
p452
aVwebstore
p453
aVmatters
p454
aVcharlie
p455
aVfailing
p456
aVcleanning
p457
aVcontact
p458
aVmother
p459
aVspencer
p460
aVdads
p461
aVleft
p462
aVyeh
p463
aVyea
p464
aVphoto
p465
aVsleepy
p466
aVunfair
p467
aVthanks
p468
aVhuman
p469
aVyep
p470
aVyes
p471
aVyer
p472
aVprevious
p473
aVbelfast
p474
aVhills
p475
aVhaa
p476
aVreuniting
p477
aVshout
p478
aVboard
p479
aVeasy
p480
aVthankie
p481
aVmatch
p482
aVthankfully
p483
aVmarifontanahello
p484
aVtmrw
p485
aVboxer
p486
aVbackground
p487
aVbluecat
p488
aVapart
p489
aVtwitterfon
p490
aVnevermind
p491
aVgift
p492
aVbirgit
p493
aVfooty
p494
aVvip
p495
aVremind
p496
aVdeireadh
p497
aVtwitterfox
p498
aVnight
p499
aVsecurity
p500
aVfirefly
p501
aVkunyuk
p502
aVcrowd
p503
aVpeople
p504
aVunderstand
p505
aVsomehow
p506
aVdead
p507
aVmalaysia
p508
aVdear
p509
aVtxt
p510
aVbomkerz
p511
aVbottom
p512
aVear
p513
aVcomments
p514
aVmuito
p515
aVoolldd
p516
aVumm
p517
aVadorable
p518
aVpls
p519
aVtrampoline
p520
aVphew
p521
aVkalled
p522
aVpost
p523
aVthts
p524
aVsuper
p525
aVchapter
p526
aVfilipino
p527
aVdollars
p528
aVmonths
p529
aVmagazine
p530
aVplus
p531
aVdotty
p532
aVrhyming
p533
aVwhats
p534
aVbattlefield
p535
aVahh
p536
aVsoo
p537
aVson
p538
aVsor
p539
aVpaper
p540
aVknee
p541
aVamsterdam
p542
aVmbp
p543
aVfabric
p544
aVsupport
p545
aVflying
p546
aVvirgin
p547
aVjoseph
p548
aVeditor
p549
aVmusic
p550
aVmabye
p551
aVhappy
p552
aVagreeable
p553
aVhead
p554
aVure
p555
aVbecoming
p556
aVlawn
p557
aVhear
p558
aVfaders
p559
aVremoved
p560
aVtrue
p561
aVreset
p562
aVcongratulations
p563
aVunderstood
p564
aVinside
p565
aVmtv
p566
aVorajel
p567
aVsmashed
p568
aVdaddy
p569
aVdelete
p570
aVmoore
p571
aVrecomendations
p572
aVsale
p573
aVkaufman
p574
aVprayer
p575
aVawhile
p576
aVcheck
p577
aVshit
p578
aVphysical
p579
aVrolandgarros
p580
aVni
p581
aVvista
p582
aValtone
p583
aVdying
p584
aVfloor
p585
aVexcel
p586
aVtil
p587
aVtim
p588
aVsetting
p589
aVtest
p590
aVbecuase
p591
aVsuperfluous
p592
aVpicture
p593
aVhucks
p594
aVbrothers
p595
aVgeezer
p596
aVwelcome
p597
aVupdate
p598
aVdiet
p599
aVunwell
p600
aVtrailers
p601
aVfell
p602
aVaward
p603
aVmiranda
p604
aVrolling
p605
aVweekend
p606
aVdied
p607
aVhappening
p608
aVdaily
p609
aVjacket
p610
aVloyal
p611
aVkgb
p612
aVtime
p613
aVsongs
p614
aVhannahn
p615
aVmanaged
p616
aVwhoever
p617
aVdance
p618
aVskip
p619
aVexcellent
p620
aVmild
p621
aVshimmy
p622
aVice
p623
aVgrateful
p624
aVskin
p625
aVmilk
p626
aVrow
p627
aVlayers
p628
aVvet
p629
aVyummy
p630
aVmillion
p631
aVwimbly
p632
aVreverting
p633
aVfinally
p634
aVtush
p635
aVknackered
p636
aVmarks
p637
aVasot400
p638
aVdownloading
p639
aVjerk
p640
aVvegas
p641
aVkitten
p642
aVtrouble
p643
aVblast
p644
aVcool
p645
aVclouds
p646
aVlevel
p647
aVdie
p648
aVposts
p649
aVbrother
p650
aVcloudy
p651
aVleave
p652
aVanbesol
p653
aVteam
p654
aVguy
p655
aVround
p656
aVyall
p657
aVdis
p658
aVlixx
p659
aVunexpected
p660
aVgeek
p661
aVprediction
p662
aVshirts
p663
aVmigraines
p664
aVdrinks
p665
aVstressful
p666
aVhavoc
p667
aVdaft
p668
aVgoes
p669
aVreply
p670
aVchanced
p671
aVsupporting
p672
aVburn
p673
aVexplosion
p674
aVfrench
p675
aVwater
p676
aVupgrade
p677
aVbaseball
p678
aVearthquake
p679
aVchange
p680
aVwait
p681
aVboy
p682
aVhealthy
p683
aVguilty
p684
aVlakers
p685
aVexams
p686
aVboo
p687
aVpillow
p688
aVlove
p689
aVextra
p690
aVmarked
p691
aVwreak
p692
aVipt
p693
aVfake
p694
aVwoamn
p695
aVrussell
p696
aVariel
p697
aVangry
p698
aVdude
p699
aVangela
p700
aVfrance
p701
aVmsn
p702
aVlive
p703
aVayy
p704
aViphone
p705
aVmemory
p706
aVthru
p707
aVsathurday
p708
aVloving
p709
aVsharing
p710
aVclub
p711
aVsuggestions
p712
aVstarting
p713
aVooh
p714
aVoregon
p715
aVclue
p716
aVdowntown
p717
aVteaser
p718
aVcaffeinated
p719
aVhehehehhe
p720
aVdouche
p721
aVcar
p722
aVflu
p723
aVferro
p724
aVsoup
p725
aVhardest
p726
aVfollowing
p727
aVinhumanity
p728
aVworthiest
p729
aVheart
p730
aVdedicated
p731
aVsandbag
p732
aVdownfall
p733
aVawesome
p734
aVnemo
p735
aVgabba
p736
aVconfused
p737
aVbridesmaid
p738
aVdrawer
p739
aVtinted
p740
aVxdd
p741
aVunfort
p742
aVperformed
p743
aVcouncil
p744
aVworkin
p745
aVcounting
p746
aVpainkillers
p747
aVpink
p748
aVproductive
p749
aVbuttered
p750
aVmeans
p751
aVdinner
p752
aVfreezer
p753
aVwrite
p754
aVtill
p755
aVsunday
p756
aVfamiliar
p757
aVnyc
p758
aVhihi
p759
aVhahahaa
p760
aVstaying
p761
aVdesigner
p762
aVlaundry
p763
aVblasting
p764
aVspot
p765
aVlucky
p766
aVmac
p767
aVbirthday
p768
aVmad
p769
aVdate
p770
aVsuck
p771
aVguys
p772
aVgrow
p773
aVrepeat
p774
aVstress
p775
aVremember
p776
aVsucceeded
p777
aVmaybe
p778
aVvbs
p779
aVst
p780
aVfluent
p781
aVsi
p782
aVnosee
p783
aVjail
p784
aVchurrasco
p785
aVtall
p786
aVsg
p787
aVtalk
p788
aVcute
p789
aVshoes
p790
aVseeing
p791
aVindeed
p792
aVwishing
p793
aVcourse
p794
aVcold
p795
aVdreading
p796
aVpolice
p797
aVthank
p798
aVwallace
p799
aVgtg
p800
aVamazing
p801
aVmaid
p802
aVwindow
p803
aVoccasionally
p804
aVthanx
p805
aVtweets
p806
aVmail
p807
aVfreaking
p808
aVhappened
p809
aVlonely
p810
aVfeelin
p811
aVanswer
p812
aVhamilton
p813
aVperdy
p814
aVpauliee
p815
aVhalf
p816
aVbath
p817
aVtwilight
p818
aVkilled
p819
aVnor
p820
aVwont
p821
aVname
p822
aVclutch
p823
aVdrop
p824
aVrock
p825
aVsejaye
p826
aVneutered
p827
aVem
p828
aVcicero
p829
aVmexico
p830
aVed
p831
aVrevised
p832
aVyeah
p833
aVgoose
p834
aVcatching
p835
aVey
p836
aVft
p837
aVgirl
p838
aVmorning
p839
aVobsession
p840
aVintended
p841
aVcanada
p842
aVliving
p843
aVspock
p844
aVshadowing
p845
aVcubicle
p846
aVsunburnt
p847
aVlooking
p848
aVbday
p849
aVseriously
p850
aVmiles
p851
aVinternet
p852
aVcorrect
p853
aVmonster
p854
aVcars
p855
aVdispatched
p856
aVbumps
p857
aVvinyl
p858
aVgrandma
p859
aVcough
p860
aVorc
p861
aVcard
p862
aVcare
p863
aVtraining
p864
aVflare
p865
aVdrizzling
p866
aVprogramming
p867
aVgordon
p868
aVyest
p869
aVadventure
p870
aVcheese
p871
aVsaving
p872
aVbeesh
p873
aVquestion
p874
aVtuloy
p875
aVxd
p876
aVyourself
p877
aVxx
p878
aVdirectly
p879
aVcroup
p880
aVimpossible
p881
aVsounds
p882
aVtomorrow
p883
aVsize
p884
aVcity
p885
aVlittle
p886
aVsheet
p887
aVstuck
p888
aVlap
p889
aVcaught
p890
aVslept
p891
aVinsalata
p892
aVfml
p893
aVtwenties
p894
aVwhite
p895
aVfriend
p896
aVlagi
p897
aVexploring
p898
aVhug
p899
aVseason
p900
aVcornwall
p901
aVcrucifixtion
p902
aVbroadcast
p903
aVeyed
p904
aVbutt
p905
aVtehran
p906
aVcopy
p907
aVboyfriend
p908
aVwat
p909
aVunfortunately
p910
aVdepressed
p911
aVgotta
p912
aVcrowded
p913
aVrehab
p914
aVfuture
p915
aVtweeting
p916
aVcollege
p917
aVpre
p918
aVana
p919
aVsab
p920
aVann
p921
aVsad
p922
aVwoah
p923
aVrained
p924
aVdeprime
p925
aVportrait
p926
aVallen
p927
aVbreakfast
p928
aVmessagery
p929
aVcoach
p930
aVzoe
p931
aVtwitpics
p932
aVsquad
p933
aVonline
p934
aVwonder
p935
aVchannel
p936
aVbets
p937
aVsurg
p938
aVpain
p939
aVtrace
p940
aVtrack
p941
aVpaid
p942
aVvisitors
p943
aVsheets
p944
aVfreshman
p945
aVlibrarian
p946
aVamerica
p947
aVpages
p948
aVmichelle
p949
aVforever
p950
aVespecially
p951
aVegg
p952
aVaverage
p953
aVproud
p954
aVdrive
p955
aVtooth
p956
aVsoho
p957
aVprofessional
p958
aVwine
p959
aVshop
p960
aVwalking
p961
aVshot
p962
aVgerman
p963
aVkwon
p964
aVspyware
p965
aVcommissary
p966
aVline
p967
aVaint
p968
aVslow
p969
aVtitle
p970
aVtears
p971
aVteary
p972
aVposted
p973
aVboyle
p974
aVmerkel
p975
aVmission
p976
aVnearly
p977
aVawaiting
p978
aVcelebrate
p979
aVsecondary
p980
aVregarding
p981
aVartist
p982
aVworried
p983
aVstupid
p984
aVmiley
p985
aVpants
p986
aVhusband
p987
aVconcert
p988
aVturntable
p989
aVasleep
p990
aVstanley
p991
aVsurgery
p992
aVur
p993
aVeyepiece
p994
aVrefreshes
p995
aVplanet
p996
aValienware
p997
aVthurs
p998
aVwhereabouts
p999
aVoutside
p1000
aVherbal
p1001
aVreading
p1002
aVwhipped
p1003
aVima
p1004
aVnotice
p1005
aVcomp
p1006
aVscreen
p1007
aVkilling
p1008
aVguitar
p1009
aVspare
p1010
aVhurts
p1011
aVarticle
p1012
aVphilosophers
p1013
aVinstallation
p1014
aVtalented
p1015
aVmona
p1016
aVblasts
p1017
aVenabling
p1018
aVallo
p1019
aVtour
p1020
aVcomet
p1021
aVcomes
p1022
aVpor
p1023
aVpop
p1024
aVmessin
p1025
aVstretched
p1026
aVlearning
p1027
aVcancel
p1028
aVwriting
p1029
aVcaring
p1030
aVunusual
p1031
aVcycling
p1032
aVteddy
p1033
aVsocialtoo
p1034
aVvacation
p1035
aVgutom
p1036
aVlmao
p1037
aVlanes
p1038
aVoffered
p1039
aVphotos
p1040
aVwake
p1041
aVcareful
p1042
aVargentina
p1043
aVenkeli
p1044
aVclampers
p1045
aVrunnin
p1046
aVwashington
p1047
aVtrick
p1048
aVcrowley
p1049
aVcancelled
p1050
aVacatully
p1051
aVive
p1052
aVinternets
p1053
aVhurting
p1054
aVbros
p1055
aVsleeping
p1056
aVblah
p1057
aVsudden
p1058
aVlimping
p1059
aVheels
p1060
aVship
p1061
aVbags
p1062
aVcafe
p1063
aVpat
p1064
aVpay
p1065
aVkindergarten
p1066
aVtrip
p1067
aVya
p1068
aVfollowers
p1069
aVreminder
p1070
aVretweeting
p1071
aVevents
p1072
aVcramming
p1073
aVwrappers
p1074
aVmanagements
p1075
aVcheers
p1076
aVrunning
p1077
aVbrigthon
p1078
aVchanging
p1079
aVtotally
p1080
aVfaithful
p1081
aVcharger
p1082
aVcosts
p1083
aVbottle
p1084
aVgrumpy
p1085
aVhubby
p1086
aVnah
p1087
aVscholarship
p1088
aVsummer
p1089
aVpredicting
p1090
aVmoney
p1091
aVneon
p1092
aVactress
p1093
aVkill
p1094
aVpastery
p1095
aVtouch
p1096
aVbzns
p1097
aVdarien
p1098
aVweekly
p1099
aVnick
p1100
aVthinking
p1101
aVexcept
p1102
aVblog
p1103
aVtreatment
p1104
aVsamples
p1105
aVreemy
p1106
aVstruck
p1107
aVreal
p1108
aVahahaha
p1109
aVmarcus
p1110
aVread
p1111
aVfridge
p1112
aVgonna
p1113
aVwarehouse
p1114
aVmon
p1115
aVlistening
p1116
aVtanto
p1117
aVusing
p1118
aVwalk
p1119
aVlady
p1120
aVdevelopers
p1121
aVpounds
p1122
aVsmell
p1123
aVbuddies
p1124
aVblackberry
p1125
aVvoluntarily
p1126
aVnice
p1127
aVcrzy
p1128
aVtwitterer
p1129
aVverbal
p1130
aVeddie
p1131
aVrespect
p1132
aVspasm
p1133
aVconfirm
p1134
aVgreshamblake
p1135
aVfluids
p1136
aVethos
p1137
aVdoggy
p1138
aVrestoring
p1139
aVpower
p1140
aVlmfao
p1141
aVmcmahaon
p1142
aVawsome
p1143
aVbroken
p1144
aVnightcap
p1145
aVlifes
p1146
aVexciting
p1147
aVthrow
p1148
aVbrighton
p1149
aVok
p1150
aVtease
p1151
aVhoward
p1152
aVfavorite
p1153
aVjenn
p1154
aVpistachio
p1155
aVwolf
p1156
aVsry
p1157
aVos
p1158
aVladies
p1159
aVimage
p1160
aVblessed
p1161
aVsnooze
p1162
aVbedtime
p1163
aVmoyles
p1164
aVdreaming
p1165
aVnowadays
p1166
aVgrates
p1167
aVlod
p1168
aVhes
p1169
aVstrictly
p1170
aVdistracted
p1171
aVhey
p1172
aVlol
p1173
aVstart
p1174
aVmondays
p1175
aVlot
p1176
aVbrazilian
p1177
aVyoou
p1178
aVkittens
p1179
aVmars
p1180
aVspose
p1181
aVsemangat
p1182
aVjus
p1183
aVtrying
p1184
aVbuying
p1185
aVrush
p1186
aVfraud
p1187
aVarranged
p1188
aVnearest
p1189
aVpeeking
p1190
aVdirty
p1191
aVgavins
p1192
aVbootiful
p1193
aVgrass
p1194
aVtrips
p1195
aVrust
p1196
aVexpect
p1197
aVstrongly
p1198
aVgone
p1199
aVtaylor
p1200
aVohh
p1201
aVcinema
p1202
aVexhausted
p1203
aVah
p1204
aVam
p1205
aVal
p1206
aVaftershocks
p1207
aVau
p1208
aVaw
p1209
aVlifetime
p1210
aVhorse
p1211
aVportland
p1212
aVfilm
p1213
aVcream
p1214
aVselfish
p1215
aVinflated
p1216
aVtight
p1217
aVcleanup
p1218
aVwoeful
p1219
aVpuppy
p1220
aVpoor
p1221
aVshaun
p1222
aVtreks
p1223
aVwaving
p1224
aVchris
p1225
aVfinals
p1226
aVbooked
p1227
aVcalls
p1228
aVgroom
p1229
aVgod
p1230
aValright
p1231
aVtanned
p1232
aVoriginal
p1233
aVessay
p1234
aVforget
p1235
aVwashed
p1236
aVbeware
p1237
aVmonth
p1238
aVawhh
p1239
aVcommute
p1240
aVsct
p1241
aVcarpet
p1242
aVdreadful
p1243
aVapartment
p1244
aVtv
p1245
aVtrixie
p1246
aVthursday
p1247
aVtk
p1248
aVdoomferret
p1249
aVte
p1250
aVtc
p1251
aVsong
p1252
aVcheckin
p1253
aVfat
p1254
aVunizh
p1255
aVsons
p1256
aVworst
p1257
aVdecide
p1258
aVsnapdragons
p1259
aVfab
p1260
aVticket
p1261
aVcondition
p1262
aVtrippin
p1263
aVheaven
p1264
aVmothers
p1265
aVcelebrity
p1266
aVlist
p1267
aVftl
p1268
aVscrapping
p1269
aVreallyy
p1270
aVsedation
p1271
aVservers
p1272
aVtea
p1273
aVtee
p1274
aVpast
p1275
aVoutof
p1276
aVdesign
p1277
aVpass
p1278
aVrere
p1279
aVrichard
p1280
aVnana
p1281
aVsun
p1282
aVcheesey
p1283
aVxox
p1284
aVlearned
p1285
aVpublic
p1286
aVknid
p1287
aVloose
p1288
aVtheresa
p1289
aVhours
p1290
aVbloggers
p1291
aVjonas
p1292
aVbrookelynn
p1293
aVnovember
p1294
aViraq
p1295
aVtable
p1296
aVsearch
p1297
aVinspired
p1298
aVexperimenting
p1299
aVpics
p1300
aVprior
p1301
aVairport
p1302
aVbase
p1303
aVarent
p1304
aVpick
p1305
aVaction
p1306
aVluck
p1307
aVoptions
p1308
aVbeliev
p1309
aVtrainer
p1310
aVvia
p1311
aVfollowed
p1312
aVfamily
p1313
aVnuffin
p1314
aVtiziano
p1315
aVhree
p1316
aVtexts
p1317
aVfollower
p1318
aVindoors
p1319
aVtoys
p1320
aVgosh
p1321
aVsetanta
p1322
aVtwitterrific
p1323
aVtwc
p1324
aVcharge
p1325
aVgorgeous
p1326
aVinjury
p1327
aVgoodnight
p1328
aVturbo
p1329
aVdoor
p1330
aVcompany
p1331
aVsite
p1332
aVflag
p1333
aVbroke
p1334
aVhurry
p1335
aVglad
p1336
aVtown
p1337
aVmvv
p1338
aVhour
p1339
aVmiddle
p1340
aVscience
p1341
aVcreated
p1342
aVsucks
p1343
aVinstalling
p1344
aVpapiseeto
p1345
aVden
p1346
aVknocked
p1347
aVmale
p1348
aVmarble
p1349
aVdef
p1350
aVhistory
p1351
aVbeautiful
p1352
aVbrown
p1353
aVshare
p1354
aVaccept
p1355
aVtaht
p1356
aVwrk
p1357
aVdress
p1358
aVhuge
p1359
aVgoal
p1360
aVsuprising
p1361
aVish
p1362
aVspeeding
p1363
aVvietnam
p1364
aVplant
p1365
aVokay
p1366
aVtried
p1367
aVadvice
p1368
aVfa
p1369
aVfb
p1370
aVblood
p1371
aVcoming
p1372
aVsusan
p1373
aVfallen
p1374
aVdocumentation
p1375
aVbroadcasting
p1376
aVego
p1377
aVpleasure
p1378
aVdream
p1379
aVplaying
p1380
aVreplied
p1381
aVhelp
p1382
aVusername
p1383
aVsoon
p1384
aVisnt
p1385
aVffl
p1386
aVsigns
p1387
aVhell
p1388
aVsmiling
p1389
aVsurgeon
p1390
aVeros
p1391
aVbummed
p1392
aVmessed
p1393
aVoverhead
p1394
aVpray
p1395
aVthnx
p1396
aVsolving
p1397
aVdolla
p1398
aVactually
p1399
aVlate
p1400
aVtoowong
p1401
aVsauce
p1402
aVcolleague
p1403
aVoks
p1404
aVevening
p1405
aVreturn
p1406
aVyo
p1407
aVfood
p1408
aVjeezz
p1409
aVstarbucks
p1410
aVhippos
p1411
aVmengurangi
p1412
aVbruvver
p1413
aVyr
p1414
aVyu
p1415
aVassociation
p1416
aVeasily
p1417
aVnxe
p1418
aVsundays
p1419
aVbless
p1420
aVgoofy
p1421
aVstopped
p1422
aVgala
p1423
aVfound
p1424
aVbiscuits
p1425
aVports
p1426
aVweek
p1427
aVengland
p1428
aVweight
p1429
aVneedless
p1430
aVhouse
p1431
aVenergy
p1432
aVhard
p1433
aVreduce
p1434
aVidea
p1435
aVfoxes
p1436
aVnossa
p1437
aVball
p1438
aVconnect
p1439
aVblues
p1440
aVbeyond
p1441
aVtravels
p1442
aVperry
p1443
aVmissed
p1444
aVrobert
p1445
aVabhi
p1446
aVmisses
p1447
aVhealth
p1448
aVlolz
p1449
aVdarling
p1450
aVplotting
p1451
aVass
p1452
aVpun
p1453
aVdrink
p1454
aVfriday
p1455
aVguess
p1456
aVreason
p1457
aVshoping
p1458
aVcookie
p1459
aVconditioning
p1460
aVimagine
p1461
aVteach
p1462
aVbeginning
p1463
aVloads
p1464
aVbash
p1465
aVamped
p1466
aVowners
p1467
aVbenefits
p1468
aVsytycd
p1469
aVdrupal
p1470
aVcomputers
p1471
aVterrible
p1472
aVterribly
p1473
aVamerican
p1474
aVexpecting
p1475
aVpalgrave
p1476
aVulyour
p1477
aVmiso
p1478
aVcoloring
p1479
aVdont
p1480
aVforwards
p1481
aVfeel
p1482
aVarsenal
p1483
aVsisters
p1484
aVtalked
p1485
aVmiss
p1486
aVmaple
p1487
aVstory
p1488
aVhott
p1489
aVguest
p1490
aVwonderful
p1491
aVjef
p1492
aVsmile
p1493
aVpains
p1494
aVniah
p1495
aVsyrup
p1496
aVstore
p1497
aVheadache
p1498
aVsympathies
p1499
aVtenderfoot
p1500
aVstorm
p1501
aVsateen
p1502
aVpark
p1503
aVdentist
p1504
aVoverdrive
p1505
aVnco
p1506
aVtranslation
p1507
aVbelieve
p1508
aVstairs
p1509
aVpeaked
p1510
aVfruitie
p1511
aVreaally
p1512
aVbag
p1513
aVgotten
p1514
aVmcfly
p1515
aVrecording
p1516
aVtummy
p1517
aVsupposed
p1518
aVinsightful
p1519
aVinteractive
p1520
aVgvie
p1521
aVoutta
p1522
aVflanigan
p1523
aVwasnt
p1524
aVages
p1525
aVrandomly
p1526
aVjuice
p1527
aVahahah
p1528
aVcleaned
p1529
aVgall
p1530
aVphilly
p1531
aVmidsommar
p1532
aVsell
p1533
aVlie
p1534
aVnights
p1535
aVbuilt
p1536
aVlil
p1537
aVself
p1538
aVcouch
p1539
aVuseless
p1540
aVplay
p1541
aVsunnyvale
p1542
aVeggs
p1543
aVreach
p1544
aVkan
p1545
aVjst
p1546
aVeaten
p1547
aVwats
p1548
aVkg
p1549
aVwindows
p1550
aVdoggie
p1551
aVsometimes
p1552
aVko
p1553
aVexp
p1554
aVweigh
p1555
aVmicrosoft
p1556
aVstones
p1557
aVstalked
p1558
aVthomas
p1559
aVugh
p1560
aVgolf
p1561
aVobligations
p1562
aVrunescape
p1563
aVsession
p1564
aVcds
p1565
aVfine
p1566
aVebery
p1567
aVcell
p1568
aVconvinced
p1569
aVruin
p1570
aVpayday
p1571
aVfailed
p1572
aVflights
p1573
aVpretty
p1574
aVhit
p1575
aVoctober
p1576
aVsunny
p1577
aVcheaper
p1578
aVfeels
p1579
aVpreparing
p1580
aVemails
p1581
aVbudapest
p1582
aVbrendan
p1583
aVcry
p1584
aVinvestigate
p1585
aVcaramel
p1586
aVhype
p1587
aVgospel
p1588
aVberjam
p1589
aVkitchener
p1590
aVstorming
p1591
aVinsane
p1592
aVset
p1593
aVsex
p1594
aVsidetracked
p1595
aVdumb
p1596
aVclose
p1597
aVlonelyness
p1598
aVarm
p1599
aVproject
p1600
aVpatties
p1601
aVmovie
p1602
aVwow
p1603
aVcurrently
p1604
aVplease
p1605
aVfans
p1606
aVwon
p1607
aVprobably
p1608
aVdonate
p1609
aVnope
p1610
aVwatchin
p1611
aVavailable
p1612
aVsolo
p1613
aVlatin
p1614
aVmissing
p1615
aVwohoo
p1616
aVpepsi
p1617
aVrelying
p1618
aVpissed
p1619
aVabruptly
p1620
aVmccafe
p1621
aVsecrets
p1622
aVbarely
p1623
aVroman
p1624
aVbuzz
p1625
aVaurelius
p1626
aVmyspacer
p1627
aVload
p1628
aVflies
p1629
aVlikee
p1630
aVtgu
p1631
aVreasons
p1632
aVsweet
p1633
aVwhatever
p1634
aVblamming
p1635
aVsimply
p1636
aVlikes
p1637
aVsexy
p1638
aVsammy
p1639
aVps
p1640
aVdue
p1641
aVelectrics
p1642
aVpc
p1643
aVnape
p1644
aVdamn
p1645
aVpj
p1646
aVsmtmes
p1647
aVmeeting
p1648
aVntah
p1649
aVwoke
p1650
aVpm
p1651
aVnukes
p1652
aVflight
p1653
aVkuya
p1654
aVslideshow
p1655
aVelse
p1656
aVfund
p1657
aVawake
p1658
aVfunn
p1659
aVsobe
p1660
aVlook
p1661
aVhorriblee
p1662
aVfrozen
p1663
aVstraight
p1664
aVravelry
p1665
aVbrilliant
p1666
aVhomework
p1667
aVfun
p1668
aVtheres
p1669
aVswim
p1670
aVhoping
p1671
aVrip
p1672
aVtriple
p1673
aVready
p1674
aVrid
p1675
aVchase
p1676
aVfunny
p1677
aVitaly
p1678
aVanymore
p1679
aVrutt
p1680
aVmigraine
p1681
aVgrand
p1682
aVitchy
p1683
aVruth
p1684
aVeww
p1685
aVforced
p1686
aVcigar
p1687
aVyesterday
p1688
aVholidays
p1689
aVviewing
p1690
aVlevels
p1691
aVmoving
p1692
aVgenuine
p1693
aVnickname
p1694
aVkno
p1695
aVyeoyeomanman
p1696
aVspent
p1697
aVeyeko
p1698
aVdouchie
p1699
aVedge
p1700
aVinspirational
p1701
aVdiisapoiinted
p1702
aVspend
p1703
aVsims
p1704
aVmom
p1705
aVshape
p1706
aVworld
p1707
aVuseful
p1708
aVprince
p1709
aVmusicmonday
p1710
aVnewlines
p1711
aVletting
p1712
aVcut
p1713
aVcup
p1714
aVmarrying
p1715
aVcuz
p1716
aVarrgghh
p1717
aVparents
p1718
aVborn
p1719
aVexcited
p1720
aVbio
p1721
aVcouple
p1722
aVunlimited
p1723
aVlovin
p1724
aVshitty
p1725
aVgame
p1726
aVtruely
p1727
aVapt
p1728
aVbit
p1729
aVseactaine
p1730
aVbout
p1731
aVlost
p1732
aVfollows
p1733
aVeer
p1734
aVchorus
p1735
aVbukas
p1736
aVmacbooks
p1737
aVbump
p1738
aVmathematical
p1739
aVgoogle
p1740
aVpartying
p1741
aVfucking
p1742
aVtivos
p1743
aVunloved
p1744
aVurgent
p1745
aVeconomic
p1746
aVbrent
p1747
aVhahhaa
p1748
aVreligion
p1749
aVepic
p1750
aVprob
p1751
aVanna
p1752
aVnose
p1753
aVeating
p1754
aVbc
p1755
aVremembered
p1756
aVbm
p1757
aVfed
p1758
aVuff
p1759
aVbu
p1760
aVache
p1761
aVbx
p1762
aVdeserved
p1763
aVcompleting
p1764
aVsprain
p1765
aVbgt
p1766
aVidk
p1767
aVidf
p1768
aVfantasic
p1769
aVwanna
p1770
aVppl
p1771
aVmuzak
p1772
aVmommy
p1773
aVtofu
p1774
aVmustached
p1775
aVloove
p1776
aVstitches
p1777
aVimpressed
p1778
aVjoking
p1779
aVspending
p1780
aVxoxo
p1781
aVeventhough
p1782
aVsuit
p1783
aVforward
p1784
aVandy
p1785
aVbored
p1786
aVscared
p1787
aVelsewhere
p1788
aVregistered
p1789
aVns2
p1790
aVlink
p1791
aVdelta
p1792
aVhopes
p1793
aVdon
p1794
aVinjection
p1795
aVmigrating
p1796
aVpenguin
p1797
aVerick
p1798
aVintuitive
p1799
aVstalking
p1800
aVum
p1801
aVuh
p1802
aVuk
p1803
aVhighlight
p1804
aVwicked
p1805
aVsimilar
p1806
aVcalled
p1807
aVwakin
p1808
aVwarning
p1809
aVoptouts
p1810
aVamandas
p1811
aVpsychopath
p1812
aVyearbook
p1813
aVkidney
p1814
aVrainy
p1815
aVnak
p1816
aVfrenchopen
p1817
aVbtww
p1818
aVafford
p1819
aVnap
p1820
aVthaat
p1821
aVtrekky
p1822
aVellen
p1823
aVtech
p1824
aVrevision
p1825
aVdraw
p1826
aVclean
p1827
aVfavourite
p1828
aVsmiley
p1829
aVpapa
p1830
aVvisits
p1831
aVdrag
p1832
aVchocolate
p1833
aVago
p1834
aVhells
p1835
aVlane
p1836
aVland
p1837
aVx10hosting
p1838
aVouting
p1839
aVresolving
p1840
aVoow
p1841
aVpeeps
p1842
aVwaxing
p1843
aVtrain
p1844
aVwalker
p1845
aVfresh
p1846
aVnash
p1847
aVhello
p1848
aVdvr
p1849
aVgw
p1850
aVkaty
p1851
aVcode
p1852
aVjason
p1853
aVresults
p1854
aVwolford
p1855
aVkath
p1856
aVgroceries
p1857
aVgang
p1858
aVhumid
p1859
aVchillin
p1860
aVkate
p1861
aVsend
p1862
aVihsaehihaeiuhe
p1863
aVwaiters
p1864
aVsilverstone
p1865
aVstocked
p1866
aVrandom
p1867
aVkitty
p1868
aVmaan
p1869
aVtelling
p1870
aVslogan
p1871
aVdrinking
p1872
aVmagic
p1873
aVmeant
p1874
aVbutton
p1875
aVmichael
p1876
aVryan
p1877
aVtry
p1878
aVcongrats
p1879
aVavoiding
p1880
aVtrs
p1881
aVdeleting
p1882
aVjump
p1883
aVfold
p1884
aVvideo
p1885
aVbooth
p1886
aVuncomfortable
p1887
aVnephew
p1888
aVdownload
p1889
aVcat
p1890
aVodd
p1891
aVsausage
p1892
aVwahoo
p1893
aVbusiness
p1894
aVkris
p1895
aVgiving
p1896
aVschedule
p1897
aVenjoyed
p1898
aVaccess
p1899
aVwaiting
p1900
aVbird
p1901
aVdegree
p1902
aVexchange
p1903
aVpacking
p1904
aVsing
p1905
aValaska
p1906
aVleaving
p1907
aVperistalsis
p1908
aVmenu
p1909
aVmakes
p1910
aVexplain
p1911
aVthats
p1912
aVpurevolume
p1913
aVwid
p1914
aVfirefox
p1915
aVapple
p1916
aVdanger
p1917
aVwin
p1918
aVapp
p1919
aVcrazy
p1920
aVprivate
p1921
aVwit
p1922
aVerroring
p1923
aVsinging
p1924
aVzit
p1925
aVcrap
p1926
aVusb
p1927
aVexamination
p1928
aVtoy
p1929
aVhistorically
p1930
aVbureaucracy
p1931
aVbabe
p1932
aVporch
p1933
aVstarted
p1934
aVcarroll
p1935
aVlocal
p1936
aVfuck
p1937
aVsore
p1938
aVcarrying
p1939
aVbaby
p1940
aVcentral
p1941
aVsubscription
p1942
aVcustomer
p1943
aVheard
p1944
aVride
p1945
aVtag
p1946
aVmeet
p1947
aVparkway
p1948
aVdidnt
p1949
aVdropped
p1950
aVwearing
p1951
aVlinks
p1952
aVgeez
p1953
aVprocess
p1954
aVtootsie
p1955
aVtherin
p1956
aVpieces
p1957
aVtae
p1958
aVcarrot
p1959
aVascension
p1960
aVtan
p1961
aVsis
p1962
aVkane
p1963
aVdinners
p1964
aVhongkong
p1965
aVsix
p1966
aVpoophead
p1967
aVwaatching
p1968
aVendoscope
p1969
aVinstead
p1970
aVredness
p1971
aVtypewriter
p1972
aVprofile
p1973
aVmusicnya
p1974
aVblocks
p1975
aVstop
p1976
aVthunderstorm
p1977
aVfart
p1978
aVfrap
p1979
aViplayer
p1980
aVda
p1981
aVcuddling
p1982
aVtweetlater
p1983
aVcoffeetree
p1984
aVdestroying
p1985
aVallow
p1986
aVbins
p1987
aVfastest
p1988
aVmove
p1989
aVivana
p1990
aVwhilst
p1991
aVaccompanist
p1992
aVlooks
p1993
aVcruise
p1994
aVhotcakes
p1995
aVbunch
p1996
aVperfect
p1997
aVcrabby
p1998
aVlc
p1999
aVla
p2000
aVchosen
p2001
aVbotanical
p2002
aVdancin
p2003
aVlv
p2004
aVorange
p2005
aVdad
p2006
aVdam
p2007
aVspell
p2008
aVdat
p2009
aVmention
p2010
aVcutting
p2011
aVkiss
p2012
aVhands
p2013
aVfront
p2014
aVday
p2015
aVparrtayy
p2016
aVprofound
p2017
aVbetta
p2018
aVweather
p2019
aVbetty
p2020
aVjournies
p2021
aVinbox
p2022
aVdoinn
p2023
aVdoing
p2024
aVparties
p2025
aVsociety
p2026
aVbooks
p2027
aVcoldstone
p2028
aVcpanel
p2029
aVwonna
p2030
aVmatt
p2031
aVcpsia
p2032
aVyup
p2033
aVmate
p2034
aVmessenger
p2035
aVgrits
p2036
aVhilarious
p2037
aVsmoe
p2038
aVlecture
p2039
aVwaay
p2040
aVcause
p2041
aVmath
p2042
aVshut
p2043
aVumbrella
p2044
aVlikonog
p2045
aVipod
p2046
aVgreedy
p2047
aVmango
p2048
aVceltics
p2049
aVscary
p2050
aVriver
p2051
aVroute
p2052
aVtimes
p2053
aVresumes
p2054
aVworkbook
p2055
aVyuus
p2056
aVfrosties
p2057
aVlinnet
p2058
aVsouth
p2059
aVwhooa
p2060
aVstudent
p2061
aVelyse
p2062
aVbitch
p2063
aVhehe
p2064
aVprank
p2065
aVplaylist
p2066
aVfestival
p2067
aVdata
p2068
aVmyspace
p2069
aVsystem
p2070
aVstabbingpeople
p2071
aVeinstein
p2072
aVgcse
p2073
aVlions
p2074
aVperfectly
p2075
aVfinal
p2076
aVpainful
p2077
aVtnight
p2078
aVstomach
p2079
aVshelf
p2080
aVexactly
p2081
aVstresses
p2082
aVdepressing
p2083
aVupdating
p2084
aVlightening
p2085
aVsummoning
p2086
aVboring
p2087
aVbeg
p2088
aVbed
p2089
aVenought
p2090
aVpolitics
p2091
aVloves
p2092
aVlover
p2093
aVbet
p2094
aVfowa
p2095
aVclip
p2096
aVteenagers
p2097
aVtonight
p2098
aVblip
p2099
aVtabo
p2100
aVari
p2101
aVthroat
p2102
aVapparently
p2103
aVlinked
p2104
aVqueenslanders
p2105
aVscrew
p2106
aVdallas
p2107
aVstudying
p2108
aVagency
p2109
aVable
p2110
aVanglo
p2111
aVlazzy
p2112
aVkyte
p2113
aVtruck
p2114
aVhav3
p2115
aVjerrie
p2116
aVunless
p2117
aVrove
p2118
aVcentre
p2119
aVaww
p2120
aVlamee
p2121
aVcollaboration
p2122
aVdelayed
p2123
aVmontana
p2124
aVawh
p2125
aVexpired
p2126
aVclass
p2127
aVcellphone
p2128
aVurl
p2129
aVpulled
p2130
aVupset
p2131
aVlooked
p2132
aVskittles
p2133
aVgain
p2134
aVbiked
p2135
aVtext
p2136
aVhm
p2137
aVanyway
p2138
aVbring
p2139
aVplanning
p2140
aVlloyd
p2141
aVbedroom
p2142
aVpleasee
p2143
aVleg
p2144
aVshield
p2145
aVenvy
p2146
aVpodcast
p2147
aVfinalss
p2148
aVcodrydamol
p2149
aVwoo
p2150
aVeat
p2151
aVtabetha
p2152
aVthousands
p2153
aVhope
p2154
aVdodge
p2155
aVcube
p2156
aVfabulous
p2157
aVsweetie
p2158
aVlistened
p2159
aVwatching
p2160
aVbeat
p2161
aVmidnight
p2162
aVphotography
p2163
aVmassacre
p2164
aVstripes
p2165
aVbear
p2166
aVcacti
p2167
aVwords
p2168
aVscrolling
p2169
aVbrain
p2170
aVmarried
p2171
aVughh
p2172
aVtuned
p2173
aVstuff
p2174
aVprocessed
p2175
aVwish
p2176
aVfixed
p2177
aVfuturistic
p2178
aVguessing
p2179
aVbtw
p2180
aVactiveion
p2181
aVprayers
p2182
aVcrayons
p2183
aVspazzing
p2184
aVcomputer
p2185
aVdriveway
p2186
aVhumane
p2187
aVramazotti
p2188
aVluv
p2189
aVnightmare
p2190
aVfavor
p2191
aVsupernatural
p2192
aVclosed
p2193
aVhorrible
p2194
aVneither
p2195
aVoutsiders
p2196
aVbought
p2197
aVexam
p2198
aVtrynna
p2199
aVjoy
p2200
aVdhcp4whs
p2201
aVjob
p2202
aVjoe
p2203
aVstutters
p2204
aVswift
p2205
aVtantrum
p2206
aVjoke
p2207
aVtaking
p2208
aVatleast
p2209
aVbristol
p2210
aVsafely
p2211
aVcomment
p2212
aVwritin
p2213
aVwala
p2214
aVcc
p2215
aVtuesday
p2216
aVcd
p2217
aVcolledge
p2218
aVmaximize
p2219
aVreplying
p2220
aVelectrocardiogram
p2221
aVpouring
p2222
aVyay
p2223
aVbbc
p2224
aVzucchero
p2225
aVbby
p2226
aVhottest
p2227
aVbbq
p2228
aVremedies
p2229
aVshoulders
p2230
aVdiversity
p2231
aVverizon
p2232
aVcrappy
p2233
aVbulk
p2234
aVhmm
p2235
aVfinished
p2236
aVkeren
p2237
aVspain
p2238
aVdeen
p2239
aVabandoned
p2240
aVunlike
p2241
aVharder
p2242
aVsalman
p2243
aVhahaha
p2244
aVarchie
p2245
aVstuffing
p2246
aVsurprisingly
p2247
aVdemi
p2248
aVweighed
p2249
aVovershare
p2250
aVvs
p2251
aVwatched
p2252
aVsits
p2253
aVuqh
p2254
aVaz
p2255
aVnerd
p2256
aVspeaker
p2257
aVpauli
p2258
aVparty
p2259
aVfill
p2260
aVfrnds
p2261
aVpaula
p2262
aVgamer
p2263
aVsada
p2264
aVpractice
p2265
aVbali
p2266
aVpromo
p2267
aVtweetdeck
p2268
aVbald
p2269
aVphx
p2270
aVtakers
p2271
aVfucked
p2272
aVafghan
p2273
aVlunch
p2274
aVthoughh
p2275
aVfighting
p2276
aVpremiership
p2277
aVdaw
p2278
aVsets
p2279
aVusual
p2280
aVtaller
p2281
aVcharitytweetuptour
p2282
aVbananas
p2283
aVmoments
p2284
aVdearest
p2285
aVseats
p2286
aVheadin
p2287
aVpaul
p2288
aVcowpats
p2289
aVwee
p2290
aVeclairs
p2291
aVheaded
p2292
aVlake
p2293
aVrealize
p2294
aVsimple
p2295
aVadd
p2296
aVadoption
p2297
aVattractive
p2298
aVclipped
p2299
aVwet
p2300
aVsmart
p2301
aVearthquakes
p2302
aVkick
p2303
aVmyth
p2304
aVchecking
p2305
aVchancellor
p2306
aVcrushed
p2307
aVsaurdays
p2308
aVcruz
p2309
aVdryer
p2310
aVfive
p2311
aVcommunity
p2312
aVdesk
p2313
aVredesign
p2314
aVahem
p2315
aVsuccess
p2316
aVring
p2317
aVdresses
p2318
aVroto
p2319
aVlose
p2320
aVsoft
p2321
aVpage
p2322
aVgaining
p2323
aVawefull
p2324
aVsmoothly
p2325
aVtwitter
p2326
aVchurch
p2327
aVhair
p2328
aVshew
p2329
aVtreadmills
p2330
aVshes
p2331
aVhome
p2332
aVpeter
p2333
aVtwitted
p2334
aVhappens
p2335
aVliterally
p2336
aVwoohoo
p2337
aVhawig
p2338
aVscrewed
p2339
aVsnuggle
p2340
aVspymaster
p2341
aVcuteset
p2342
aVbiology
p2343
aVarrg
p2344
aVsediihh
p2345
aVslight
p2346
aVjournal
p2347
aVglasto
p2348
aVgetting
p2349
aVswear
p2350
aVwheats
p2351
aVpuppies
p2352
aVdocumentary
p2353
aVrevise
p2354
aVswimming
p2355
aVown
p2356
aVbeechams
p2357
aVerrands
p2358
aVscreamed
p2359
aVdoesnt
p2360
aVfemale
p2361
aVartists
p2362
aVadvert
p2363
aVvan
p2364
aVval
p2365
aVtransfer
p2366
aVmuseum
p2367
aVkidding
p2368
aVtweetweet
p2369
aVquanto
p2370
aVinspiration
p2371
aVbuy
p2372
aVbus
p2373
aVcoke
p2374
aVhw
p2375
aVreminds
p2376
aVcontradictory
p2377
aVgoals
p2378
aVgranny
p2379
aVbub
p2380
aVha
p2381
aVfunner
p2382
aVbug
p2383
aVbud
p2384
aVbaises
p2385
aVlikeone
p2386
aVcells
p2387
aVsigned
p2388
aVrecord
p2389
aVbelow
p2390
aVconvince
p2391
aVstories
p2392
aVempty
p2393
aVcake
p2394
aVlvl
p2395
aVpiece
p2396
aVminutes
p2397
aVrightly
p2398
aVjenny
p2399
aVpic
p2400
aVbuffy
p2401
aVgoodness
p2402
aVtheatre
p2403
aVshooting
p2404
aVpit
p2405
aVhappen
p2406
aVredder
p2407
aVrelaxing
p2408
aVlately
p2409
aVdetais
p2410
aVgossip
p2411
aVboom
p2412
aVsick
p2413
aVsice
p2414
aVsicc
p2415
aValbum
p2416
aVtohave
p2417
aVstar
p2418
aVmonday
p2419
aVshouldve
p2420
aVin2
p2421
aVstay
p2422
aVchance
p2423
aVkinda
p2424
aVfriends
p2425
aVgoin
p2426
aVtwhirl
p2427
aVoral
p2428
aVlasted
p2429
aVstrings
p2430
aVsleeves
p2431
aVkuntah
p2432
a.